
	.arch_extension virt
	.arch_extension idiv
	.arch_extension sec
	.arch_extension mp
	.eabi_attribute 20, 1
	.eabi_attribute 21, 1
	.eabi_attribute 23, 3
	.eabi_attribute 24, 1
	.eabi_attribute 25, 1
	.eabi_attribute 26, 2
	.eabi_attribute 30, 2
	.eabi_attribute 34, 1
	.eabi_attribute 18, 4
	.file	"kernel_final.c"
	.text
.Ltext0:
	.cfi_sections	.debug_frame
	.align	2
	.global	idle_thread
	.syntax unified
	.arm
	.fpu softvfp
	.type	idle_thread, %function
idle_thread:
.LFB382:
	.file 1 "/home/sel4/work/work2/kernel/src/arch/arm/32/idle.c"
	.loc 1 16 0
	.cfi_startproc
	@ Volatile: function does not return.
	@ args = 0, pretend = 0, frame = 0
	@ frame_needed = 0, uses_anonymous_args = 0
	@ link register save eliminated.
.L2:
.LBB5920:
.LBB5921:
	.file 2 "/home/sel4/work/work2/kernel/include/arch/arm/armv/armv7-a/armv/machine.h"
	.loc 2 16 0 discriminator 1
	.syntax divided
@ 16 "/home/sel4/work/work2/kernel/include/arch/arm/armv/armv7-a/armv/machine.h" 1
	wfi
@ 0 "" 2
	.arm
	.syntax unified
	b	.L2
.LBE5921:
.LBE5920:
	.cfi_endproc
.LFE382:
	.size	idle_thread, .-idle_thread
	.align	2
	.syntax unified
	.arm
	.fpu softvfp
	.type	putEncodedChar, %function
putEncodedChar:
.LFB473:
	.file 3 "/home/sel4/work/work2/kernel/src/arch/arm/32/machine/capdl.c"
	.loc 3 64 0
	.cfi_startproc
	@ args = 0, pretend = 0, frame = 0
	@ frame_needed = 0, uses_anonymous_args = 0
	@ link register save eliminated.
.LVL0:
	.loc 3 65 0
	cmp	r0, #187
.LBB5922:
.LBB5923:
	.file 4 "/home/sel4/work/work2/kernel/src/plat/exynos5/../exynos_common/io.c"
	.loc 4 44 0
	mvneq	r1, #1040384
.LBE5923:
.LBE5922:
	.loc 3 65 0
	beq	.L5
	cmp	r0, #255
.LBB5926:
.LBB5927:
	.loc 4 44 0
	mvneq	r1, #1040384
.LBE5927:
.LBE5926:
	.loc 3 65 0
	beq	.L6
	cmp	r0, #170
	beq	.L43
	.loc 3 79 0
	cmp	r0, #19
	bhi	.L12
.LBB5930:
.LBB5931:
	.loc 4 44 0
	mvn	r1, #1040384
.L27:
	ldr	r3, [r1, #-4079]
	tst	r3, #2
	beq	.L27
.LBE5931:
.LBE5930:
	.loc 3 81 0
	add	r0, r0, #20
.LVL1:
.LBB5934:
.LBB5932:
	.loc 4 45 0
	mov	r3, #170
.LBE5932:
.LBE5934:
	.loc 3 81 0
	uxtb	r0, r0
.LBB5935:
.LBB5936:
	.loc 4 44 0
	mvn	r2, #1040384
.LBE5936:
.LBE5935:
.LBB5938:
.LBB5933:
	.loc 4 45 0
	str	r3, [r1, #-4063]
.LVL2:
.L14:
.LBE5933:
.LBE5938:
.LBB5939:
.LBB5937:
	.loc 4 44 0
	ldr	r3, [r2, #-4079]
	tst	r3, #2
	beq	.L14
.LBE5937:
.LBE5939:
.LBB5940:
.LBB5941:
	.loc 4 45 0
	str	r0, [r2, #-4063]
.LVL3:
.L44:
.LBE5941:
.LBE5940:
	.loc 3 86 0
	bx	lr
.LVL4:
.L5:
.LBB5943:
.LBB5924:
	.loc 4 44 0
	ldr	r3, [r1, #-4079]
	tst	r3, #2
	beq	.L5
	.loc 4 45 0
	mov	r3, #170
.LBE5924:
.LBE5943:
.LBB5944:
.LBB5945:
	.loc 4 44 0
	mvn	r2, #1040384
.LBE5945:
.LBE5944:
.LBB5947:
.LBB5925:
	.loc 4 45 0
	str	r3, [r1, #-4063]
.L11:
.LBE5925:
.LBE5947:
.LBB5948:
.LBB5946:
	.loc 4 44 0
	ldr	r3, [r2, #-4079]
	tst	r3, #2
	beq	.L11
	.loc 4 45 0
	mov	r3, #162
	str	r3, [r2, #-4063]
.LBE5946:
.LBE5948:
	.loc 3 86 0
	bx	lr
.L6:
.LBB5949:
.LBB5928:
	.loc 4 44 0
	ldr	r3, [r1, #-4079]
	tst	r3, #2
	beq	.L6
	.loc 4 45 0
	mov	r3, #170
.LBE5928:
.LBE5949:
.LBB5950:
.LBB5951:
	.loc 4 44 0
	mvn	r2, #1040384
.LBE5951:
.LBE5950:
.LBB5953:
.LBB5929:
	.loc 4 45 0
	str	r3, [r1, #-4063]
.L10:
.LBE5929:
.LBE5953:
.LBB5954:
.LBB5952:
	.loc 4 44 0
	ldr	r3, [r2, #-4079]
	tst	r3, #2
	beq	.L10
	.loc 4 45 0
	mov	r3, #160
	str	r3, [r2, #-4063]
.LBE5952:
.LBE5954:
	.loc 3 86 0
	bx	lr
.L43:
.LBB5955:
.LBB5956:
	.loc 4 44 0
	mvn	r1, #1040384
.L7:
	ldr	r3, [r1, #-4079]
	tst	r3, #2
	beq	.L7
	.loc 4 45 0
	mov	r3, #170
.LBE5956:
.LBE5955:
.LBB5958:
.LBB5959:
	.loc 4 44 0
	mvn	r2, #1040384
.LBE5959:
.LBE5958:
.LBB5961:
.LBB5957:
	.loc 4 45 0
	str	r3, [r1, #-4063]
.L8:
.LBE5957:
.LBE5961:
.LBB5962:
.LBB5960:
	.loc 4 44 0
	ldr	r3, [r2, #-4079]
	tst	r3, #2
	beq	.L8
	.loc 4 45 0
	mov	r3, #161
	str	r3, [r2, #-4063]
.LBE5960:
.LBE5962:
	.loc 3 86 0
	bx	lr
.L12:
.LBB5963:
.LBB5942:
	.loc 4 44 0
	mvn	r2, #1040384
.L28:
	ldr	r3, [r2, #-4079]
	tst	r3, #2
	beq	.L28
	.loc 4 45 0
	str	r0, [r2, #-4063]
	b	.L44
.LBE5942:
.LBE5963:
	.cfi_endproc
.LFE473:
	.size	putEncodedChar, .-putEncodedChar
	.align	2
	.syntax unified
	.arm
	.fpu softvfp
	.type	sendWord, %function
sendWord:
.LFB475:
	.loc 3 111 0
	.cfi_startproc
	@ args = 0, pretend = 0, frame = 0
	@ frame_needed = 0, uses_anonymous_args = 0
.LVL5:
	str	r4, [sp, #-8]!
	.cfi_def_cfa_offset 8
	.cfi_offset 4, -8
	.cfi_offset 14, -4
	mov	r4, r0
	.loc 3 112 0
	uxtb	r0, r0
.LVL6:
	.loc 3 111 0
	str	lr, [sp, #4]
	.loc 3 112 0
	bl	putEncodedChar
.LVL7:
	.loc 3 113 0
	ubfx	r0, r4, #8, #8
	bl	putEncodedChar
.LVL8:
	.loc 3 114 0
	ubfx	r0, r4, #16, #8
	bl	putEncodedChar
.LVL9:
	.loc 3 115 0
	lsr	r0, r4, #24
	.loc 3 116 0
	ldr	r4, [sp]
	.cfi_restore 4
.LVL10:
	ldr	lr, [sp, #4]
	.cfi_restore 14
	add	sp, sp, #8
	.cfi_def_cfa_offset 0
	.loc 3 115 0
	b	putEncodedChar
.LVL11:
	.cfi_endproc
.LFE475:
	.size	sendWord, .-sendWord
	.section	.boot.text,"ax",%progbits
	.align	2
	.syntax unified
	.arm
	.fpu softvfp
	.type	dist_init, %function
dist_init:
.LFB576:
	.file 5 "/home/sel4/work/work2/kernel/src/arch/arm/machine/gic_pl390.c"
	.loc 5 46 0
	.cfi_startproc
	@ args = 0, pretend = 0, frame = 0
	@ frame_needed = 0, uses_anonymous_args = 0
	@ link register save eliminated.
	.loc 5 48 0
	movw	r3, #16639
	.loc 5 49 0
	mov	ip, #0
	.loc 5 48 0
	movt	r3, 65520
	.loc 5 51 0
	mov	r1, ip
	.loc 5 48 0
	ldr	r2, [r3, #-251]
	.loc 5 53 0
	mvn	r0, #0
	.loc 5 49 0
	str	ip, [r3, #-255]
	.loc 5 48 0
	and	r2, r2, #31
	add	r2, r2, #1
	lsl	r2, r2, #5
.LVL12:
.L48:
	.loc 5 53 0 discriminator 3
	lsr	r3, r1, #5
	.loc 5 51 0 discriminator 3
	add	r1, r1, #32
.LVL13:
	lsl	r3, r3, #2
	cmp	r2, r1
	sub	r3, r3, #1032192
	.loc 5 53 0 discriminator 3
	str	r0, [r3, #384]
	.loc 5 55 0 discriminator 3
	str	r0, [r3, #640]
	.loc 5 51 0 discriminator 3
	bhi	.L48
.LVL14:
	.loc 5 59 0 discriminator 1
	cmp	r2, #32
	beq	.L52
	.loc 5 61 0
	movw	ip, #16639
	movw	r0, #32896
	movt	ip, 65520
	movt	r0, 32896
	.loc 5 59 0
	mov	r1, #32
.LVL15:
.L51:
	.loc 5 61 0
	bic	r3, r1, #3
	.loc 5 59 0
	add	r1, r1, #4
.LVL16:
	.loc 5 61 0
	add	r3, r3, #1024
	.loc 5 59 0
	cmp	r2, r1
	.loc 5 61 0
	add	r3, ip, r3
	str	r0, [r3, #-255]
	.loc 5 59 0
	bhi	.L51
.LVL17:
.L52:
	.loc 5 72 0
	movw	ip, #16639
	movw	r0, #257
	movt	ip, 65520
	movt	r0, 257
	.loc 5 59 0
	mov	r1, #0
.L50:
.LVL18:
	.loc 5 72 0 discriminator 3
	bic	r3, r1, #3
	.loc 5 71 0 discriminator 3
	add	r1, r1, #4
.LVL19:
	.loc 5 72 0 discriminator 3
	add	r3, r3, #2048
	.loc 5 71 0 discriminator 3
	cmp	r2, r1
	.loc 5 72 0 discriminator 3
	add	r3, ip, r3
	str	r0, [r3, #-255]
	.loc 5 71 0 discriminator 3
	bhi	.L50
.LVL20:
	.loc 5 76 0 discriminator 1
	cmp	r2, #64
	bls	.L56
	.loc 5 77 0 discriminator 3
	movw	ip, #16639
	movw	r0, #21845
	movt	ip, 65520
	movt	r0, 21845
	.loc 5 76 0 discriminator 3
	mov	r1, #64
.LVL21:
.L55:
	.loc 5 77 0 discriminator 3
	lsr	r3, r1, #5
	.loc 5 76 0 discriminator 3
	add	r1, r1, #32
.LVL22:
	cmp	r2, r1
	.loc 5 77 0 discriminator 3
	add	r3, r3, #768
	add	r3, ip, r3, lsl #2
	str	r0, [r3, #-255]
	.loc 5 76 0 discriminator 3
	bhi	.L55
.LVL23:
.L56:
	.loc 5 83 0
	movw	r0, #16639
	.loc 5 76 0
	mov	r1, #0
	.loc 5 83 0
	movt	r0, 65520
	mvn	ip, #0
.L54:
.LVL24:
	lsr	r3, r1, #5
	.loc 5 81 0
	add	r1, r1, #32
.LVL25:
	cmp	r2, r1
	.loc 5 83 0
	add	r3, r3, #32
	add	r3, r0, r3, lsl #2
	str	ip, [r3, #-255]
	.loc 5 81 0
	bhi	.L54
	.loc 5 89 0
	mov	r3, #1
	str	r3, [r0, #-255]
	.loc 5 90 0
	bx	lr
	.cfi_endproc
.LFE576:
	.size	dist_init, .-dist_init
	.align	2
	.syntax unified
	.arm
	.fpu softvfp
	.type	cpu_iface_init, %function
cpu_iface_init:
.LFB577:
	.loc 5 94 0
	.cfi_startproc
	@ args = 0, pretend = 0, frame = 0
	@ frame_needed = 0, uses_anonymous_args = 0
	.loc 5 98 0
	movw	r3, #16639
	.loc 5 104 0
	movw	ip, #32896
	.loc 5 94 0
	strd	r4, [sp, #-12]!
	.cfi_def_cfa_offset 12
	.cfi_offset 4, -12
	.cfi_offset 5, -8
	.cfi_offset 14, -4
	.loc 5 115 0
	movw	r2, #20735
	.loc 5 94 0
	str	lr, [sp, #8]
	.loc 5 98 0
	movt	r3, 65520
	mvn	r1, #0
	.loc 5 115 0
	movt	r2, 65520
	.loc 5 104 0
	movt	ip, 32896
	.loc 5 115 0
	mov	r5, #0
	.loc 5 122 0
	mov	r4, #240
	.loc 5 123 0
	mov	lr, #3
	.loc 5 98 0
	str	r1, [r3, #129]
	.loc 5 99 0
	str	r1, [r3, #385]
	.loc 5 126 0
	movw	r0, #1023
	.loc 5 103 0
	str	r1, [r3, #-127]
	.loc 5 104 0
	str	ip, [r3, #769]
.LVL26:
	.loc 5 112 0
	str	r1, [r3, #3601]
.LVL27:
	str	r1, [r3, #3605]
.LVL28:
	str	r1, [r3, #3609]
.LVL29:
	str	r1, [r3, #3613]
.LVL30:
	.loc 5 115 0
	str	r5, [r2, #-255]
	.loc 5 122 0
	str	r4, [r2, #-251]
	.loc 5 123 0
	str	lr, [r2, #-247]
	.loc 5 125 0
	ldr	r3, [r2, #-243]
.LVL31:
	.loc 5 126 0
	ubfx	r1, r3, #0, #10
	cmp	r1, r0
	beq	.L65
.L64:
	.loc 5 127 0
	str	r3, [r2, #-239]
	.loc 5 128 0
	ldr	r3, [r2, #-243]
.LVL32:
	.loc 5 126 0
	ubfx	r1, r3, #0, #10
	cmp	r1, r0
	bne	.L64
.L65:
	.loc 5 130 0
	movw	r3, #20735
.LVL33:
	mov	r2, #1
	.loc 5 131 0
	ldrd	r4, [sp]
	.cfi_restore 5
	.cfi_restore 4
	.loc 5 130 0
	movt	r3, 65520
	.loc 5 131 0
	add	sp, sp, #8
	.cfi_def_cfa_offset 4
	.loc 5 130 0
	str	r2, [r3, #-255]
	.loc 5 131 0
	ldr	pc, [sp], #4
	.cfi_restore 15
	.cfi_def_cfa_offset 0
	.cfi_endproc
.LFE577:
	.size	cpu_iface_init, .-cpu_iface_init
	.text
	.align	2
	.syntax unified
	.arm
	.fpu softvfp
	.type	preemptionPoint.part.63, %function
preemptionPoint.part.63:
.LFB938:
	.file 6 "/home/sel4/work/work2/kernel/src/model/preemption.c"
	.loc 6 21 0
	.cfi_startproc
	@ args = 0, pretend = 0, frame = 0
	@ frame_needed = 0, uses_anonymous_args = 0
	@ link register save eliminated.
.LBB5964:
.LBB5965:
	.file 7 "/home/sel4/work/work2/kernel/include/arch/arm/arch/machine/gic_pl390.h"
	.loc 7 188 0
	movw	r3, #20735
.LBE5965:
.LBE5964:
	.loc 6 35 0
	movw	r2, #:lower16:ksWorkUnitsCompleted
.LBB5969:
.LBB5966:
	.loc 7 188 0
	movt	r3, 65520
.LBE5966:
.LBE5969:
	.loc 6 35 0
	mov	r1, #0
.LBB5970:
.LBB5967:
	.loc 7 188 0
	ldr	r3, [r3, #-231]
.LBE5967:
.LBE5970:
	.loc 6 35 0
	movt	r2, #:upper16:ksWorkUnitsCompleted
	str	r1, [r2]
.LBB5971:
.LBB5968:
	.loc 7 188 0
	ubfx	r3, r3, #0, #10
.LBE5968:
.LBE5971:
	.loc 6 36 0
	cmp	r3, #1020
	.loc 6 42 0
	movcc	r0, #4
	movcs	r0, r1
	bx	lr
	.cfi_endproc
.LFE938:
	.size	preemptionPoint.part.63, .-preemptionPoint.part.63
	.align	2
	.syntax unified
	.arm
	.fpu softvfp
	.type	putchar.part.64, %function
putchar.part.64:
.LFB939:
	.file 8 "/home/sel4/work/work2/kernel/src/machine/io.c"
	.loc 8 19 0
	.cfi_startproc
	@ args = 0, pretend = 0, frame = 0
	@ frame_needed = 0, uses_anonymous_args = 0
	@ link register save eliminated.
.LVL34:
.LBB5972:
.LBB5973:
.LBB5974:
	.loc 4 44 0
	mvn	r2, #1040384
.L73:
	ldr	r3, [r2, #-4079]
	tst	r3, #2
	beq	.L73
	.loc 4 45 0
	mov	r3, #13
	str	r3, [r2, #-4063]
.LBE5974:
.LBE5973:
.LBE5972:
	.loc 8 25 0
	bx	lr
	.cfi_endproc
.LFE939:
	.size	putchar.part.64, .-putchar.part.64
	.align	2
	.syntax unified
	.arm
	.fpu softvfp
	.type	print_string, %function
print_string:
.LFB727:
	.loc 8 39 0
	.cfi_startproc
	@ args = 0, pretend = 0, frame = 0
	@ frame_needed = 0, uses_anonymous_args = 0
.LVL35:
	.loc 8 42 0
	ldrb	r2, [r0]	@ zero_extendqisi2
	cmp	r2, #0
	beq	.L81
	.loc 8 39 0
	strd	r4, [sp, #-16]!
	.cfi_def_cfa_offset 16
	.cfi_offset 4, -16
	.cfi_offset 5, -12
	.cfi_offset 6, -8
	.cfi_offset 14, -4
.LBB5975:
.LBB5976:
.LBB5977:
.LBB5978:
.LBB5979:
	.loc 4 44 0
	mvn	r1, #1040384
	mov	r5, r0
	add	r4, r0, #1
.LBE5979:
.LBE5978:
.LBE5977:
.LBE5976:
.LBE5975:
	.loc 8 39 0
	str	r6, [sp, #8]
	str	lr, [sp, #12]
.LVL36:
.L78:
.LBB5988:
.LBB5986:
.LBB5984:
.LBB5982:
.LBB5980:
	.loc 4 44 0
	ldr	r3, [r1, #-4079]
	tst	r3, #2
	beq	.L78
.LBE5980:
.LBE5982:
.LBE5984:
	.loc 8 22 0
	cmp	r2, #10
.LBB5985:
.LBB5983:
.LBB5981:
	.loc 4 45 0
	str	r2, [r1, #-4063]
.LBE5981:
.LBE5983:
.LBE5985:
	.loc 8 22 0
	beq	.L90
.L79:
.LVL37:
	sub	r0, r4, r5
.LVL38:
.LBE5986:
.LBE5988:
	.loc 8 42 0 discriminator 3
	ldrb	r2, [r4], #1	@ zero_extendqisi2
.LVL39:
	cmp	r2, #0
	bne	.L78
	.loc 8 47 0
	ldrd	r4, [sp]
	.cfi_remember_state
	.cfi_restore 5
	.cfi_restore 4
.LVL40:
	ldr	r6, [sp, #8]
	.cfi_restore 6
	add	sp, sp, #12
	.cfi_def_cfa_offset 4
	ldr	pc, [sp], #4
	.cfi_restore 15
	.cfi_def_cfa_offset 0
.LVL41:
.L90:
	.cfi_restore_state
.LBB5989:
.LBB5987:
	bl	putchar.part.64
.LVL42:
	b	.L79
.LVL43:
.L81:
	.cfi_def_cfa_offset 0
	.cfi_restore 4
	.cfi_restore 5
	.cfi_restore 6
	.cfi_restore 14
.LBE5987:
.LBE5989:
	.loc 8 42 0
	mov	r0, r2
.LVL44:
	.loc 8 46 0
	bx	lr
	.cfi_endproc
.LFE727:
	.size	print_string, .-print_string
	.align	2
	.syntax unified
	.arm
	.fpu softvfp
	.type	print_unsigned_long.part.65, %function
print_unsigned_long.part.65:
.LFB940:
	.loc 8 76 0
	.cfi_startproc
	@ args = 0, pretend = 0, frame = 16
	@ frame_needed = 0, uses_anonymous_args = 0
.LVL45:
	.loc 8 95 0
	subs	r3, r0, #0
	beq	.L106
.LBB5990:
.LBB5991:
	.loc 8 65 0
	cmp	r1, #10
.LBE5991:
.LBE5990:
	.loc 8 76 0
	strd	r4, [sp, #-12]!
	.cfi_def_cfa_offset 12
	.cfi_offset 4, -12
	.cfi_offset 5, -8
	.cfi_offset 14, -4
	.loc 8 95 0
	mov	r0, #0
.LVL46:
	.loc 8 76 0
	str	lr, [sp, #8]
	sub	sp, sp, #20
	.cfi_def_cfa_offset 32
.LBB5995:
.LBB5996:
	.loc 8 56 0
	movw	lr, #52429
.LBE5996:
.LBE5995:
	.loc 8 101 0
	mov	r4, #48
	add	ip, sp, #4
.LBB6002:
.LBB5997:
	.loc 8 56 0
	movt	lr, 52428
.LVL47:
.LBE5997:
.LBE6002:
.LBB6003:
.LBB5992:
	.loc 8 65 0
	beq	.L94
.L126:
	cmp	r1, #16
	beq	.L124
.LVL48:
.LBE5992:
.LBE6003:
.LBB6004:
.LBB5998:
	.loc 8 52 0
	cmp	r1, #10
.LBE5998:
.LBE6004:
	.loc 8 101 0
	strb	r4, [ip]
.LVL49:
.LBB6005:
.LBB5999:
	.loc 8 52 0
	beq	.L98
	cmp	r1, #16
	beq	.L97
.LVL50:
.LBE5999:
.LBE6005:
	.loc 8 95 0
	add	r0, r0, #1
.LVL51:
.L100:
	add	r3, sp, #4
	mov	r4, r0
	add	r5, r3, r0
.LBB6006:
.LBB6007:
.LBB6008:
.LBB6009:
.LBB6010:
	.loc 4 44 0
	mvn	r1, #1040384
.LVL52:
.L105:
.LBE6010:
.LBE6009:
.LBE6008:
.LBE6007:
.LBE6006:
	.loc 8 106 0
	ldrb	r2, [r5, #-1]!	@ zero_extendqisi2
.LVL53:
	sub	r4, r4, #1
.LVL54:
.L103:
.LBB6019:
.LBB6017:
.LBB6015:
.LBB6013:
.LBB6011:
	.loc 4 44 0
	ldr	r3, [r1, #-4079]
	tst	r3, #2
	beq	.L103
.LBE6011:
.LBE6013:
.LBE6015:
	.loc 8 22 0
	cmp	r2, #10
.LBB6016:
.LBB6014:
.LBB6012:
	.loc 4 45 0
	str	r2, [r1, #-4063]
.LVL55:
.LBE6012:
.LBE6014:
.LBE6016:
	.loc 8 22 0
	beq	.L125
.LVL56:
.L104:
.LBE6017:
.LBE6019:
	.loc 8 105 0
	cmp	r4, #0
	bne	.L105
	.loc 8 110 0
	add	sp, sp, #20
	.cfi_remember_state
	.cfi_def_cfa_offset 12
	@ sp needed
	ldrd	r4, [sp]
	.cfi_restore 5
	.cfi_restore 4
.LVL57:
	add	sp, sp, #8
	.cfi_def_cfa_offset 4
	ldr	pc, [sp], #4
	.cfi_restore 15
	.cfi_def_cfa_offset 0
.LVL58:
.L124:
	.cfi_restore_state
.LBB6020:
.LBB5993:
	.loc 8 67 0
	and	r2, r3, #15
.LVL59:
.LBE5993:
.LBE6020:
	.loc 8 98 0
	cmp	r2, #9
	.loc 8 101 0
	addls	r2, r2, #48
	strbls	r2, [ip]
	.loc 8 98 0
	bls	.L97
	.loc 8 99 0
	add	r2, r2, #87
	strb	r2, [ip]
.LVL60:
.L97:
.LBB6021:
.LBB6000:
	.loc 8 54 0
	lsr	r3, r3, #4
.LVL61:
.L101:
.LBE6000:
.LBE6021:
	.loc 8 95 0
	cmp	r3, #0
	add	r0, r0, #1
.LVL62:
	add	ip, ip, #1
	beq	.L100
.LVL63:
.LBB6022:
.LBB5994:
	.loc 8 65 0
	cmp	r1, #10
	bne	.L126
.L94:
.LVL64:
	.loc 8 69 0
	umull	r5, r2, lr, r3
	lsr	r2, r2, #3
	add	r2, r2, r2, lsl #2
	sub	r2, r3, r2, lsl #1
.LBE5994:
.LBE6022:
	.loc 8 101 0
	add	r2, r2, #48
	strb	r2, [ip]
.LVL65:
.L98:
.LBB6023:
.LBB6001:
	.loc 8 56 0
	umull	r2, r3, lr, r3
.LVL66:
	lsr	r3, r3, #3
	b	.L101
.LVL67:
.L125:
.LBE6001:
.LBE6023:
.LBB6024:
.LBB6018:
	bl	putchar.part.64
.LVL68:
	b	.L104
.LVL69:
.L106:
	.cfi_def_cfa_offset 0
	.cfi_restore 4
	.cfi_restore 5
	.cfi_restore 14
.LBE6018:
.LBE6024:
	.loc 8 95 0
	mov	r0, r3
.LVL70:
	bx	lr
	.cfi_endproc
.LFE940:
	.size	print_unsigned_long.part.65, .-print_unsigned_long.part.65
	.align	2
	.syntax unified
	.arm
	.fpu softvfp
	.type	getDecodedChar, %function
getDecodedChar:
.LFB472:
	.loc 3 30 0
	.cfi_startproc
	@ args = 0, pretend = 0, frame = 0
	@ frame_needed = 0, uses_anonymous_args = 0
	@ link register save eliminated.
.LVL71:
.LBB6033:
.LBB6034:
	.loc 4 53 0
	mvn	r2, #1040384
	ldr	r3, [r2, #-4079]
	tst	r3, #1
	beq	.L137
	.loc 4 54 0
	ldr	r3, [r2, #-4059]
	uxtb	r3, r3
.LBE6034:
.LBE6033:
	.loc 3 33 0
	cmp	r3, #255
	beq	.L137
	.loc 3 36 0
	cmp	r3, #170
	beq	.L141
.L129:
	.loc 3 58 0
	strb	r3, [r0]
	.loc 3 59 0
	mov	r3, #0
.L127:
	.loc 3 61 0
	mov	r0, r3
.LVL72:
	bx	lr
.LVL73:
.L141:
.LBB6035:
.LBB6036:
.LBB6037:
.LBB6038:
	.loc 4 53 0
	ldr	r3, [r2, #-4079]
	tst	r3, #1
	bne	.L142
.LVL74:
.L137:
.LBE6038:
.LBE6037:
.LBE6036:
.LBE6035:
	.loc 3 34 0
	mov	r3, #1
	.loc 3 61 0
	mov	r0, r3
.LVL75:
	bx	lr
.LVL76:
.L142:
.LBB6042:
.LBB6041:
.LBB6040:
.LBB6039:
	.loc 4 54 0
	ldr	r3, [r2, #-4059]
	uxtb	r3, r3
.LBE6039:
.LBE6040:
	.loc 3 38 0
	cmp	r3, #255
	beq	.L137
	.loc 3 41 0
	cmp	r3, #161
	beq	.L131
	cmp	r3, #162
	beq	.L132
	cmp	r3, #160
	beq	.L143
	.loc 3 52 0
	sub	r3, r3, #20
	uxtb	r3, r3
	cmp	r3, #19
	.loc 3 56 0
	movhi	r3, #0
	.loc 3 52 0
	bhi	.L127
	b	.L129
.L131:
	.loc 3 43 0
	mvn	r2, #85
	.loc 3 56 0
	mov	r3, #0
	.loc 3 43 0
	strb	r2, [r0]
	b	.L127
.L143:
	.loc 3 46 0
	mvn	r2, #0
	.loc 3 56 0
	mov	r3, #0
	.loc 3 46 0
	strb	r2, [r0]
	b	.L127
.L132:
	.loc 3 49 0
	mvn	r2, #68
	.loc 3 56 0
	mov	r3, #0
	.loc 3 49 0
	strb	r2, [r0]
	b	.L127
.LBE6041:
.LBE6042:
	.cfi_endproc
.LFE472:
	.size	getDecodedChar, .-getDecodedChar
	.align	2
	.syntax unified
	.arm
	.fpu softvfp
	.type	getArg32, %function
getArg32:
.LFB474:
	.loc 3 89 0
	.cfi_startproc
	@ args = 0, pretend = 0, frame = 8
	@ frame_needed = 0, uses_anonymous_args = 0
.LVL77:
	str	lr, [sp, #-4]!
	.cfi_def_cfa_offset 4
	.cfi_offset 14, -4
	.loc 3 90 0
	mov	r3, #0
	.loc 3 89 0
	sub	sp, sp, #12
	.cfi_def_cfa_offset 16
	.loc 3 89 0
	mov	r1, r0
	.loc 3 94 0
	add	r0, sp, #4
.LVL78:
	.loc 3 90 0
	strb	r3, [sp, #4]
	.loc 3 91 0
	strb	r3, [sp, #5]
	.loc 3 92 0
	strb	r3, [sp, #6]
	.loc 3 93 0
	strb	r3, [sp, #7]
	.loc 3 94 0
	bl	getDecodedChar
.LVL79:
	cmp	r0, #0
	beq	.L145
.L147:
	.loc 3 95 0
	mov	r0, #1
.L144:
	.loc 3 108 0
	add	sp, sp, #12
	.cfi_remember_state
	.cfi_def_cfa_offset 4
	@ sp needed
	ldr	pc, [sp], #4
.L145:
	.cfi_restore_state
	.loc 3 97 0
	add	r0, sp, #5
	bl	getDecodedChar
.LVL80:
	cmp	r0, #0
	bne	.L147
	.loc 3 100 0
	add	r0, sp, #6
	bl	getDecodedChar
.LVL81:
	cmp	r0, #0
	bne	.L147
	.loc 3 103 0
	add	r0, sp, #7
	bl	getDecodedChar
.LVL82:
	cmp	r0, #0
	bne	.L147
	.loc 3 106 0
	ldrb	r3, [sp, #5]	@ zero_extendqisi2
	ldrb	lr, [sp, #4]	@ zero_extendqisi2
	ldrb	ip, [sp, #7]	@ zero_extendqisi2
	ldrb	r2, [sp, #6]	@ zero_extendqisi2
	lsl	r3, r3, #16
	orr	r3, r3, lr, lsl #24
	orr	r3, r3, ip
	orr	r3, r3, r2, lsl #8
	str	r3, [r1]
	.loc 3 107 0
	b	.L144
	.cfi_endproc
.LFE474:
	.size	getArg32, .-getArg32
	.section	.boot.text
	.align	2
	.global	Arch_configureIdleThread
	.syntax unified
	.arm
	.fpu softvfp
	.type	Arch_configureIdleThread, %function
Arch_configureIdleThread:
.LFB385:
	.file 9 "/home/sel4/work/work2/kernel/src/arch/arm/32/kernel/thread.c"
	.loc 9 34 0
	.cfi_startproc
	@ args = 0, pretend = 0, frame = 0
	@ frame_needed = 0, uses_anonymous_args = 0
	@ link register save eliminated.
.LVL83:
.LBB6043:
.LBB6044:
	.file 10 "/home/sel4/work/work2/kernel/include/machine/registerset.h"
	.loc 10 30 0
	movw	r3, #:lower16:idle_thread
.LVL84:
.LBE6044:
.LBE6043:
.LBB6046:
.LBB6047:
	mov	r2, #90
.LBE6047:
.LBE6046:
.LBB6049:
.LBB6045:
	movt	r3, #:upper16:idle_thread
	str	r3, [r0, #60]
.LBE6045:
.LBE6049:
.LBB6050:
.LBB6048:
	str	r2, [r0, #64]
.LVL85:
.LBE6048:
.LBE6050:
	.loc 9 37 0
	bx	lr
	.cfi_endproc
.LFE385:
	.size	Arch_configureIdleThread, .-Arch_configureIdleThread
	.text
	.align	2
	.global	Arch_activateIdleThread
	.syntax unified
	.arm
	.fpu softvfp
	.type	Arch_activateIdleThread, %function
Arch_activateIdleThread:
.LFB1188:
	.cfi_startproc
	@ args = 0, pretend = 0, frame = 0
	@ frame_needed = 0, uses_anonymous_args = 0
	@ link register save eliminated.
	bx	lr
	.cfi_endproc
.LFE1188:
	.size	Arch_activateIdleThread, .-Arch_activateIdleThread
	.align	2
	.global	findPDForASID
	.syntax unified
	.arm
	.fpu softvfp
	.type	findPDForASID, %function
findPDForASID:
.LFB414:
	.file 11 "/home/sel4/work/work2/kernel/src/arch/arm/32/kernel/vspace.c"
	.loc 11 681 0
	.cfi_startproc
	@ args = 0, pretend = 0, frame = 0
	@ frame_needed = 0, uses_anonymous_args = 0
	@ link register save eliminated.
.LVL86:
	.loc 11 686 0
	movw	r3, #:lower16:armKSASIDTable
	lsr	r2, r1, #10
	movt	r3, #:upper16:armKSASIDTable
	ldr	r3, [r3, r2, lsl #2]
.LVL87:
	.loc 11 687 0
	cmp	r3, #0
	beq	.L154
	.loc 11 695 0
	ubfx	r1, r1, #0, #10
.LVL88:
	ldr	r3, [r3, r1, lsl #2]
.LVL89:
	.loc 11 696 0
	cmp	r3, #0
	beq	.L154
.LVL90:
	.loc 11 706 0
	mov	r2, #0
.LVL91:
	strd	r2, [r0]
.LVL92:
	.loc 11 707 0
	bx	lr
.LVL93:
.L154:
	.loc 11 688 0
	movw	r3, #:lower16:current_lookup_fault
	mov	r2, #0
.LVL94:
	movt	r3, #:upper16:current_lookup_fault
	.loc 11 692 0
	mov	r1, #2
	.loc 11 688 0
	str	r2, [r3]
	.loc 11 692 0
	stm	r0, {r1, r2}
	.loc 11 688 0
	str	r2, [r3, #4]
.LVL95:
	.loc 11 707 0
	bx	lr
	.cfi_endproc
.LFE414:
	.size	findPDForASID, .-findPDForASID
	.align	2
	.global	lookupPDSlot
	.syntax unified
	.arm
	.fpu softvfp
	.type	lookupPDSlot, %function
lookupPDSlot:
.LFB417:
	.loc 11 768 0
	.cfi_startproc
	@ args = 0, pretend = 0, frame = 0
	@ frame_needed = 0, uses_anonymous_args = 0
	@ link register save eliminated.
.LVL96:
	.loc 11 771 0
	lsr	r1, r1, #21
.LVL97:
	.loc 11 773 0
	add	r0, r0, r1, lsl #3
.LVL98:
	bx	lr
	.cfi_endproc
.LFE417:
	.size	lookupPDSlot, .-lookupPDSlot
	.align	2
	.global	isIOSpaceFrameCap
	.syntax unified
	.arm
	.fpu softvfp
	.type	isIOSpaceFrameCap, %function
isIOSpaceFrameCap:
.LFB424:
	.loc 11 1082 0
	.cfi_startproc
	@ args = 0, pretend = 0, frame = 8
	@ frame_needed = 0, uses_anonymous_args = 0
	@ link register save eliminated.
	sub	sp, sp, #8
	.cfi_def_cfa_offset 8
	.loc 11 1082 0
	add	r3, sp, #8
	stmdb	r3, {r0, r1}
	.loc 11 1088 0
	mov	r0, #0
	add	sp, sp, #8
	.cfi_def_cfa_offset 0
	@ sp needed
	bx	lr
	.cfi_endproc
.LFE424:
	.size	isIOSpaceFrameCap, .-isIOSpaceFrameCap
	.align	2
	.global	copyGlobalMappings
	.syntax unified
	.arm
	.fpu softvfp
	.type	copyGlobalMappings, %function
copyGlobalMappings:
.LFB435:
	.loc 11 1299 0
	.cfi_startproc
	@ args = 0, pretend = 0, frame = 0
	@ frame_needed = 0, uses_anonymous_args = 0
	@ link register save eliminated.
.LVL99:
	.loc 11 1318 0
	bx	lr
	.cfi_endproc
.LFE435:
	.size	copyGlobalMappings, .-copyGlobalMappings
	.align	2
	.global	getRestartPC
	.syntax unified
	.arm
	.fpu softvfp
	.type	getRestartPC, %function
getRestartPC:
.LFB490:
	.file 12 "/home/sel4/work/work2/kernel/src/arch/arm/32/machine/hardware.c"
	.loc 12 18 0
	.cfi_startproc
	@ args = 0, pretend = 0, frame = 0
	@ frame_needed = 0, uses_anonymous_args = 0
	@ link register save eliminated.
.LVL100:
	.loc 12 20 0
	ldr	r0, [r0, #68]
.LVL101:
	bx	lr
	.cfi_endproc
.LFE490:
	.size	getRestartPC, .-getRestartPC
	.align	2
	.global	setNextPC
	.syntax unified
	.arm
	.fpu softvfp
	.type	setNextPC, %function
setNextPC:
.LFB491:
	.loc 12 24 0
	.cfi_startproc
	@ args = 0, pretend = 0, frame = 0
	@ frame_needed = 0, uses_anonymous_args = 0
	@ link register save eliminated.
.LVL102:
.LBB6057:
.LBB6058:
	.loc 10 30 0
	str	r1, [r0, #60]
.LVL103:
.LBE6058:
.LBE6057:
	.loc 12 26 0
	bx	lr
	.cfi_endproc
.LFE491:
	.size	setNextPC, .-setNextPC
	.section	.boot.text
	.align	2
	.global	get_num_avail_p_regs
	.syntax unified
	.arm
	.fpu softvfp
	.type	get_num_avail_p_regs, %function
get_num_avail_p_regs:
.LFB492:
	.loc 12 30 0
	.cfi_startproc
	@ args = 0, pretend = 0, frame = 0
	@ frame_needed = 0, uses_anonymous_args = 0
	@ link register save eliminated.
	.loc 12 32 0
	mov	r0, #1
	bx	lr
	.cfi_endproc
.LFE492:
	.size	get_num_avail_p_regs, .-get_num_avail_p_regs
	.align	2
	.global	get_num_dev_p_regs
	.syntax unified
	.arm
	.fpu softvfp
	.type	get_num_dev_p_regs, %function
get_num_dev_p_regs:
.LFB493:
	.loc 12 36 0
	.cfi_startproc
	@ args = 0, pretend = 0, frame = 0
	@ frame_needed = 0, uses_anonymous_args = 0
	@ link register save eliminated.
	.loc 12 38 0
	mov	r0, #224
	bx	lr
	.cfi_endproc
.LFE493:
	.size	get_num_dev_p_regs, .-get_num_dev_p_regs
	.align	2
	.global	get_dev_p_reg
	.syntax unified
	.arm
	.fpu softvfp
	.type	get_dev_p_reg, %function
get_dev_p_reg:
.LFB494:
	.loc 12 41 0
	.cfi_startproc
	@ args = 0, pretend = 0, frame = 0
	@ frame_needed = 0, uses_anonymous_args = 0
	@ link register save eliminated.
.LVL104:
	.loc 12 42 0
	lsl	r1, r1, #3
.LVL105:
	movw	r3, #:lower16:.LANCHOR0
	movt	r3, #:upper16:.LANCHOR0
	ldrd	r2, [r3, r1]
	strd	r2, [r0]
	.loc 12 43 0
	bx	lr
	.cfi_endproc
.LFE494:
	.size	get_dev_p_reg, .-get_dev_p_reg
	.align	2
	.global	get_avail_p_reg
	.syntax unified
	.arm
	.fpu softvfp
	.type	get_avail_p_reg, %function
get_avail_p_reg:
.LFB495:
	.loc 12 46 0
	.cfi_startproc
	@ args = 0, pretend = 0, frame = 0
	@ frame_needed = 0, uses_anonymous_args = 0
	@ link register save eliminated.
.LVL106:
	.loc 12 47 0
	movw	r3, #:lower16:.LANCHOR0
	movt	r3, #:upper16:.LANCHOR0
	add	r1, r3, r1, lsl #3
.LVL107:
	add	r1, r1, #1792
	ldrd	r2, [r1]
	strd	r2, [r0]
	.loc 12 48 0
	bx	lr
	.cfi_endproc
.LFE495:
	.size	get_avail_p_reg, .-get_avail_p_reg
	.text
	.align	2
	.global	Arch_isFrameType
	.syntax unified
	.arm
	.fpu softvfp
	.type	Arch_isFrameType, %function
Arch_isFrameType:
.LFB497:
	.file 13 "/home/sel4/work/work2/kernel/src/arch/arm/32/object/objecttype.c"
	.loc 13 26 0
	.cfi_startproc
	@ args = 0, pretend = 0, frame = 0
	@ frame_needed = 0, uses_anonymous_args = 0
	@ link register save eliminated.
.LVL108:
	.loc 13 27 0
	sub	r0, r0, #5
.LVL109:
	.loc 13 39 0
	cmp	r0, #3
	movhi	r0, #0
.LVL110:
	movls	r0, #1
	bx	lr
	.cfi_endproc
.LFE497:
	.size	Arch_isFrameType, .-Arch_isFrameType
	.align	2
	.global	Arch_updateCapData
	.syntax unified
	.arm
	.fpu softvfp
	.type	Arch_updateCapData, %function
Arch_updateCapData:
.LFB499:
	.loc 13 123 0
	.cfi_startproc
	@ args = 12, pretend = 8, frame = 0
	@ frame_needed = 0, uses_anonymous_args = 0
	@ link register save eliminated.
.LVL111:
	sub	sp, sp, #8
	.cfi_def_cfa_offset 8
	.loc 13 123 0
	str	r3, [sp, #4]
	.loc 13 124 0
	ldrd	r2, [sp, #4]
.LVL112:
	.loc 13 125 0
	add	sp, sp, #8
	.cfi_def_cfa_offset 0
	.loc 13 124 0
	strd	r2, [r0]
	.loc 13 125 0
	bx	lr
	.cfi_endproc
.LFE499:
	.size	Arch_updateCapData, .-Arch_updateCapData
	.align	2
	.global	clean_D_PoU
	.syntax unified
	.arm
	.fpu softvfp
	.type	clean_D_PoU, %function
clean_D_PoU:
.LFB515:
	.file 14 "/home/sel4/work/work2/kernel/src/arch/arm/armv/armv7-a/cache.c"
	.loc 14 75 0
	.cfi_startproc
	@ args = 0, pretend = 0, frame = 8
	@ frame_needed = 0, uses_anonymous_args = 0
	strd	r4, [sp, #-36]!
	.cfi_def_cfa_offset 36
	.cfi_offset 4, -36
	.cfi_offset 5, -32
	.cfi_offset 6, -28
	.cfi_offset 7, -24
	.cfi_offset 8, -20
	.cfi_offset 9, -16
	.cfi_offset 10, -12
	.cfi_offset 11, -8
	.cfi_offset 14, -4
	strd	r6, [sp, #8]
	strd	r8, [sp, #16]
	strd	r10, [sp, #24]
	str	lr, [sp, #32]
	sub	sp, sp, #12
	.cfi_def_cfa_offset 48
.LBB6059:
.LBB6060:
	.loc 14 32 0
	.syntax divided
@ 32 "/home/sel4/work/work2/kernel/src/arch/arm/armv/armv7-a/cache.c" 1
	mrc p15, 1, fp, c0, c0, 1
@ 0 "" 2
.LVL113:
	.arm
	.syntax unified
.LBE6060:
.LBE6059:
	.loc 14 77 0
	ubfx	r3, fp, #27, #3
.LVL114:
	.loc 14 80 0
	cmp	r3, #0
	beq	.L174
	lsl	r3, r3, #1
.LVL115:
	mov	r6, #0
	mov	r9, r6
	mov	r10, #1
	str	r3, [sp, #4]
.LVL116:
.L179:
	.loc 14 81 0
	asr	r3, fp, r9
	and	r3, r3, #7
	cmp	r3, #1
	bls	.L176
.LVL117:
.LBB6061:
.LBB6062:
.LBB6063:
	.loc 14 54 0
	.syntax divided
@ 54 "/home/sel4/work/work2/kernel/src/arch/arm/armv/armv7-a/cache.c" 1
	mrc p15, 2, r2, c0, c0, 0
@ 0 "" 2
	.loc 14 56 0
@ 56 "/home/sel4/work/work2/kernel/src/arch/arm/armv/armv7-a/cache.c" 1
	mcr p15, 2, r6, c0, c0, 0
@ 0 "" 2
	.loc 14 58 0
@ 58 "/home/sel4/work/work2/kernel/src/arch/arm/armv/armv7-a/cache.c" 1
	mrc p15, 1, r3, c0, c0, 0
@ 0 "" 2
	.loc 14 60 0
@ 60 "/home/sel4/work/work2/kernel/src/arch/arm/armv/armv7-a/cache.c" 1
	mcr p15, 2, r2, c0, c0, 0
@ 0 "" 2
.LVL118:
	.arm
	.syntax unified
.LBE6063:
.LBE6062:
	.loc 14 84 0
	ubfx	r7, r3, #3, #10
	.loc 14 83 0
	and	lr, r3, #7
.LBB6064:
.LBB6065:
	.file 15 "/home/sel4/work/work2/kernel/include/util.h"
	.loc 15 105 0
	clz	r8, r7
.LBE6065:
.LBE6064:
	.loc 14 83 0
	add	lr, lr, #4
	.loc 14 86 0
	ubfx	r3, r3, #13, #15
	mov	r4, #0
	.loc 14 84 0
	add	r7, r7, #1
.LVL119:
	lsl	r8, r10, r8
.LVL120:
	lsl	lr, r10, lr
	.loc 14 86 0
	add	ip, r3, #1
.LVL121:
	.loc 14 89 0
	mov	r5, r4
.LVL122:
.L177:
.LBE6061:
	.loc 14 80 0
	mov	r3, #0
	orr	r0, r4, r6
	mov	r2, r3
.LVL123:
.L178:
.LBB6069:
.LBB6066:
	.loc 14 94 0 discriminator 3
	orr	r1, r3, r0
.LVL124:
.LBB6067:
.LBB6068:
	.loc 14 20 0 discriminator 3
	.syntax divided
@ 20 "/home/sel4/work/work2/kernel/src/arch/arm/armv/armv7-a/cache.c" 1
	mcr p15, 0, r1, c7, c10, 2
@ 0 "" 2
.LVL125:
	.arm
	.syntax unified
.LBE6068:
.LBE6067:
	.loc 14 92 0 discriminator 3
	add	r2, r2, #1
.LVL126:
	add	r3, r3, lr
	cmp	ip, r2
	bgt	.L178
.LBE6066:
	.loc 14 89 0 discriminator 2
	add	r5, r5, #1
.LVL127:
	add	r4, r4, r8
	cmp	r7, r5
	bgt	.L177
.LVL128:
.L176:
.LBE6069:
	.loc 14 80 0
	ldr	r3, [sp, #4]
	add	r6, r6, #2
	add	r9, r9, #3
	cmp	r3, r6
	bne	.L179
.L174:
	.loc 14 99 0
	add	sp, sp, #12
	.cfi_def_cfa_offset 36
	@ sp needed
	ldrd	r4, [sp]
	.cfi_restore 5
	.cfi_restore 4
	ldrd	r6, [sp, #8]
	.cfi_restore 7
	.cfi_restore 6
	ldrd	r8, [sp, #16]
	.cfi_restore 9
	.cfi_restore 8
	ldrd	r10, [sp, #24]
	.cfi_restore 11
	.cfi_restore 10
	add	sp, sp, #32
	.cfi_def_cfa_offset 4
	ldr	pc, [sp], #4
	.cfi_restore 15
	.cfi_def_cfa_offset 0
	.cfi_endproc
.LFE515:
	.size	clean_D_PoU, .-clean_D_PoU
	.align	2
	.global	cleanInvalidate_D_PoC
	.syntax unified
	.arm
	.fpu softvfp
	.type	cleanInvalidate_D_PoC, %function
cleanInvalidate_D_PoC:
.LFB516:
	.loc 14 104 0
	.cfi_startproc
	@ args = 0, pretend = 0, frame = 8
	@ frame_needed = 0, uses_anonymous_args = 0
	strd	r4, [sp, #-36]!
	.cfi_def_cfa_offset 36
	.cfi_offset 4, -36
	.cfi_offset 5, -32
	.cfi_offset 6, -28
	.cfi_offset 7, -24
	.cfi_offset 8, -20
	.cfi_offset 9, -16
	.cfi_offset 10, -12
	.cfi_offset 11, -8
	.cfi_offset 14, -4
	strd	r6, [sp, #8]
	strd	r8, [sp, #16]
	strd	r10, [sp, #24]
	str	lr, [sp, #32]
	sub	sp, sp, #12
	.cfi_def_cfa_offset 48
.LBB6070:
.LBB6071:
	.loc 14 32 0
	.syntax divided
@ 32 "/home/sel4/work/work2/kernel/src/arch/arm/armv/armv7-a/cache.c" 1
	mrc p15, 1, fp, c0, c0, 1
@ 0 "" 2
.LVL129:
	.arm
	.syntax unified
.LBE6071:
.LBE6070:
	.loc 14 106 0
	ubfx	r3, fp, #24, #3
.LVL130:
	.loc 14 109 0
	cmp	r3, #0
	beq	.L185
	lsl	r3, r3, #1
.LVL131:
	mov	r6, #0
	mov	r9, r6
	mov	r10, #1
	str	r3, [sp, #4]
.LVL132:
.L190:
	.loc 14 110 0
	asr	r3, fp, r9
	and	r3, r3, #7
	cmp	r3, #1
	bls	.L187
.LVL133:
.LBB6072:
.LBB6073:
.LBB6074:
	.loc 14 54 0
	.syntax divided
@ 54 "/home/sel4/work/work2/kernel/src/arch/arm/armv/armv7-a/cache.c" 1
	mrc p15, 2, r2, c0, c0, 0
@ 0 "" 2
	.loc 14 56 0
@ 56 "/home/sel4/work/work2/kernel/src/arch/arm/armv/armv7-a/cache.c" 1
	mcr p15, 2, r6, c0, c0, 0
@ 0 "" 2
	.loc 14 58 0
@ 58 "/home/sel4/work/work2/kernel/src/arch/arm/armv/armv7-a/cache.c" 1
	mrc p15, 1, r3, c0, c0, 0
@ 0 "" 2
	.loc 14 60 0
@ 60 "/home/sel4/work/work2/kernel/src/arch/arm/armv/armv7-a/cache.c" 1
	mcr p15, 2, r2, c0, c0, 0
@ 0 "" 2
.LVL134:
	.arm
	.syntax unified
.LBE6074:
.LBE6073:
	.loc 14 113 0
	ubfx	r7, r3, #3, #10
	.loc 14 112 0
	and	lr, r3, #7
.LBB6075:
.LBB6076:
	.loc 15 105 0
	clz	r8, r7
.LBE6076:
.LBE6075:
	.loc 14 112 0
	add	lr, lr, #4
	.loc 14 115 0
	ubfx	r3, r3, #13, #15
	mov	r4, #0
	.loc 14 113 0
	add	r7, r7, #1
.LVL135:
	lsl	r8, r10, r8
.LVL136:
	lsl	lr, r10, lr
	.loc 14 115 0
	add	ip, r3, #1
.LVL137:
	.loc 14 118 0
	mov	r5, r4
.LVL138:
.L188:
.LBE6072:
	.loc 14 109 0
	mov	r3, #0
	orr	r0, r4, r6
	mov	r2, r3
.LVL139:
.L189:
.LBB6080:
.LBB6077:
	.loc 14 123 0 discriminator 3
	orr	r1, r3, r0
.LVL140:
.LBB6078:
.LBB6079:
	.loc 14 25 0 discriminator 3
	.syntax divided
@ 25 "/home/sel4/work/work2/kernel/src/arch/arm/armv/armv7-a/cache.c" 1
	mcr p15, 0, r1, c7, c14, 2
@ 0 "" 2
.LVL141:
	.arm
	.syntax unified
.LBE6079:
.LBE6078:
	.loc 14 121 0 discriminator 3
	add	r2, r2, #1
.LVL142:
	add	r3, r3, lr
	cmp	ip, r2
	bgt	.L189
.LBE6077:
	.loc 14 118 0 discriminator 2
	add	r5, r5, #1
.LVL143:
	add	r4, r4, r8
	cmp	r7, r5
	bgt	.L188
.LVL144:
.L187:
.LBE6080:
	.loc 14 109 0
	ldr	r3, [sp, #4]
	add	r6, r6, #2
	add	r9, r9, #3
	cmp	r3, r6
	bne	.L190
.L185:
	.loc 14 128 0
	add	sp, sp, #12
	.cfi_def_cfa_offset 36
	@ sp needed
	ldrd	r4, [sp]
	.cfi_restore 5
	.cfi_restore 4
	ldrd	r6, [sp, #8]
	.cfi_restore 7
	.cfi_restore 6
	ldrd	r8, [sp, #16]
	.cfi_restore 9
	.cfi_restore 8
	ldrd	r10, [sp, #24]
	.cfi_restore 11
	.cfi_restore 10
	add	sp, sp, #32
	.cfi_def_cfa_offset 4
	ldr	pc, [sp], #4
	.cfi_restore 15
	.cfi_def_cfa_offset 0
	.cfi_endproc
.LFE516:
	.size	cleanInvalidate_D_PoC, .-cleanInvalidate_D_PoC
	.section	.boot.text
	.align	2
	.global	activate_global_pd
	.syntax unified
	.arm
	.fpu softvfp
	.type	activate_global_pd, %function
activate_global_pd:
.LFB412:
	.loc 11 638 0
	.cfi_startproc
	@ args = 0, pretend = 0, frame = 0
	@ frame_needed = 0, uses_anonymous_args = 0
	str	r4, [sp, #-8]!
	.cfi_def_cfa_offset 8
	.cfi_offset 4, -8
	.cfi_offset 14, -4
	str	lr, [sp, #4]
.LBB6081:
.LBB6082:
.LBB6083:
.LBB6084:
	.loc 2 21 0
	.syntax divided
@ 21 "/home/sel4/work/work2/kernel/include/arch/arm/armv/armv7-a/armv/machine.h" 1
	dsb
@ 0 "" 2
	.arm
	.syntax unified
.LBE6084:
.LBE6083:
	.file 16 "/home/sel4/work/work2/kernel/src/arch/arm/machine/cache.c"
	.loc 16 183 0
	bl	cleanInvalidate_D_PoC
.LVL145:
.LBB6085:
.LBB6086:
	.loc 2 21 0
	.syntax divided
@ 21 "/home/sel4/work/work2/kernel/include/arch/arm/armv/armv7-a/armv/machine.h" 1
	dsb
@ 0 "" 2
	.arm
	.syntax unified
.LBE6086:
.LBE6085:
.LBB6087:
.LBB6088:
	.file 17 "/home/sel4/work/work2/kernel/include/arch/arm/arch/32/mode/machine.h"
	.loc 17 330 0
	mov	r3, #0
	.syntax divided
@ 330 "/home/sel4/work/work2/kernel/include/arch/arm/arch/32/mode/machine.h" 1
	mcr p15, 0, r3, c7, c5, 0
@ 0 "" 2
	.arm
	.syntax unified
.LBB6089:
.LBB6090:
	.loc 2 31 0
	.syntax divided
@ 31 "/home/sel4/work/work2/kernel/include/arch/arm/armv/armv7-a/armv/machine.h" 1
	isb
@ 0 "" 2
	.arm
	.syntax unified
.LBE6090:
.LBE6089:
.LBE6088:
.LBE6087:
.LBB6091:
.LBB6092:
	.loc 2 21 0
	.syntax divided
@ 21 "/home/sel4/work/work2/kernel/include/arch/arm/armv/armv7-a/armv/machine.h" 1
	dsb
@ 0 "" 2
.LVL146:
	.arm
	.syntax unified
.LBE6092:
.LBE6091:
.LBE6082:
.LBE6081:
.LBB6093:
.LBB6094:
	.file 18 "/home/sel4/work/work2/kernel/include/arch/arm/arch/32/mode/machine_pl2.h"
	.loc 18 67 0
	mov	r2, #65280
	.syntax divided
@ 67 "/home/sel4/work/work2/kernel/include/arch/arm/arch/32/mode/machine_pl2.h" 1
	mcr p15, 4, r2, c10, c2, 0
@ 0 "" 2
	.loc 18 68 0
@ 68 "/home/sel4/work/work2/kernel/include/arch/arm/arch/32/mode/machine_pl2.h" 1
	mcr p15, 4, r3, c10, c2, 1
@ 0 "" 2
	.arm
	.syntax unified
.LBB6095:
.LBB6096:
	.loc 2 31 0
	.syntax divided
@ 31 "/home/sel4/work/work2/kernel/include/arch/arm/armv/armv7-a/armv/machine.h" 1
	isb
@ 0 "" 2
.LVL147:
	.arm
	.syntax unified
.LBE6096:
.LBE6095:
.LBE6094:
.LBE6093:
.LBB6097:
.LBB6098:
.LBB6099:
.LBB6100:
	.loc 2 21 0
	.syntax divided
@ 21 "/home/sel4/work/work2/kernel/include/arch/arm/armv/armv7-a/armv/machine.h" 1
	dsb
@ 0 "" 2
	.arm
	.syntax unified
.LBE6100:
.LBE6099:
.LBE6098:
.LBE6097:
.LBB6104:
.LBB6105:
	.file 19 "/home/sel4/work/work2/kernel/include/machine.h"
	.loc 19 29 0
	ldr	r2, .L198
.LBE6105:
.LBE6104:
.LBB6106:
.LBB6103:
	.loc 18 47 0
	.syntax divided
@ 47 "/home/sel4/work/work2/kernel/include/arch/arm/arch/32/mode/machine_pl2.h" 1
	mcrr p15, 4, r2, r3, c2
@ 0 "" 2
	.arm
	.syntax unified
.LBB6101:
.LBB6102:
	.loc 2 31 0
	.syntax divided
@ 31 "/home/sel4/work/work2/kernel/include/arch/arm/armv/armv7-a/armv/machine.h" 1
	isb
@ 0 "" 2
	.arm
	.syntax unified
.LBE6102:
.LBE6101:
.LBE6103:
.LBE6106:
.LBB6107:
.LBB6108:
.LBB6109:
.LBB6110:
	.loc 2 21 0
	.syntax divided
@ 21 "/home/sel4/work/work2/kernel/include/arch/arm/armv/armv7-a/armv/machine.h" 1
	dsb
@ 0 "" 2
	.arm
	.syntax unified
.LBE6110:
.LBE6109:
	.loc 18 82 0
	.syntax divided
@ 82 "/home/sel4/work/work2/kernel/include/arch/arm/arch/32/mode/machine_pl2.h" 1
	mcr p15, 4, r3, c8, c7, 0
@ 0 "" 2
	.arm
	.syntax unified
.LBB6111:
.LBB6112:
	.loc 2 21 0
	.syntax divided
@ 21 "/home/sel4/work/work2/kernel/include/arch/arm/armv/armv7-a/armv/machine.h" 1
	dsb
@ 0 "" 2
	.arm
	.syntax unified
.LBE6112:
.LBE6111:
.LBB6113:
.LBB6114:
	.loc 2 31 0
	.syntax divided
@ 31 "/home/sel4/work/work2/kernel/include/arch/arm/armv/armv7-a/armv/machine.h" 1
	isb
@ 0 "" 2
.LVL148:
	.arm
	.syntax unified
.LBE6114:
.LBE6113:
.LBE6108:
.LBE6107:
.LBB6115:
.LBB6116:
.LBB6117:
.LBB6118:
	.loc 2 21 0
	.syntax divided
@ 21 "/home/sel4/work/work2/kernel/include/arch/arm/armv/armv7-a/armv/machine.h" 1
	dsb
@ 0 "" 2
	.arm
	.syntax unified
.LBE6118:
.LBE6117:
	.loc 18 54 0
	mov	r3, #1280
	movt	r3, 32768
	.syntax divided
@ 54 "/home/sel4/work/work2/kernel/include/arch/arm/arch/32/mode/machine_pl2.h" 1
	mcr p15, 4, r3, c2, c1, 2
@ 0 "" 2
	.arm
	.syntax unified
.LBB6119:
.LBB6120:
	.loc 2 31 0
	.syntax divided
@ 31 "/home/sel4/work/work2/kernel/include/arch/arm/armv/armv7-a/armv/machine.h" 1
	isb
@ 0 "" 2
.LVL149:
	.arm
	.syntax unified
.LBE6120:
.LBE6119:
.LBE6116:
.LBE6115:
	.loc 11 665 0
	ldr	r4, [sp]
	.cfi_restore 4
	add	sp, sp, #4
	.cfi_def_cfa_offset 4
	ldr	pc, [sp], #4
	.cfi_restore 15
	.cfi_def_cfa_offset 0
.L199:
	.align	2
.L198:
	.word	.LANCHOR1-2147483648
	.cfi_endproc
.LFE412:
	.size	activate_global_pd, .-activate_global_pd
	.text
	.align	2
	.global	armv_init_user_access
	.syntax unified
	.arm
	.fpu softvfp
	.type	armv_init_user_access, %function
armv_init_user_access:
.LFB522:
	.file 20 "/home/sel4/work/work2/kernel/src/arch/arm/armv/armv7-a/user_access.c"
	.loc 20 65 0
	.cfi_startproc
	@ args = 0, pretend = 0, frame = 0
	@ frame_needed = 0, uses_anonymous_args = 0
	@ link register save eliminated.
	.loc 20 68 0
	.syntax divided
@ 68 "/home/sel4/work/work2/kernel/src/arch/arm/armv/armv7-a/user_access.c" 1
	mrc   p15, 0,  r3,  c0,  c1, 2
@ 0 "" 2
.LVL150:
	.loc 20 73 0
@ 73 "/home/sel4/work/work2/kernel/src/arch/arm/armv/armv7-a/user_access.c" 1
	mrc   p15, 0,  r3,  c0,  c1, 1
@ 0 "" 2
.LVL151:
	.loc 20 74 0
	.arm
	.syntax unified
	tst	r3, #65536
	beq	.L200
.LBB6126:
.LBB6127:
.LBB6128:
	.loc 20 52 0
	.syntax divided
@ 52 "/home/sel4/work/work2/kernel/src/arch/arm/armv/armv7-a/user_access.c" 1
	mrc   p15, 0,  r3, c14,  c1, 0
@ 0 "" 2
.LVL152:
	.loc 20 57 0
	.arm
	.syntax unified
	orr	r3, r3, #3
.LVL153:
.LBB6129:
	.loc 20 59 0
	.syntax divided
@ 59 "/home/sel4/work/work2/kernel/src/arch/arm/armv/armv7-a/user_access.c" 1
	mcr   p15, 0,  r3, c14,  c1, 0
@ 0 "" 2
.LVL154:
	.arm
	.syntax unified
.L200:
.LBE6129:
.LBE6128:
.LBE6127:
.LBE6126:
	.loc 20 77 0
	bx	lr
	.cfi_endproc
.LFE522:
	.size	armv_init_user_access, .-armv_init_user_access
	.align	2
	.global	cleanInvalidateCacheRange_RAM
	.syntax unified
	.arm
	.fpu softvfp
	.type	cleanInvalidateCacheRange_RAM, %function
cleanInvalidateCacheRange_RAM:
.LFB542:
	.loc 16 34 0
	.cfi_startproc
	@ args = 0, pretend = 0, frame = 0
	@ frame_needed = 0, uses_anonymous_args = 0
	@ link register save eliminated.
.LVL155:
.LBB6130:
.LBB6131:
	.loc 16 26 0
	lsr	r1, r1, #6
.LVL156:
	lsr	r0, r0, #6
.LVL157:
	add	r1, r1, #1
	cmp	r0, r1
	lslcc	r3, r0, #6
	lslcc	r2, r1, #6
.LVL158:
	bcs	.L210
.LVL159:
.L209:
.LBB6132:
.LBB6133:
	.loc 17 266 0
	.syntax divided
@ 266 "/home/sel4/work/work2/kernel/include/arch/arm/arch/32/mode/machine.h" 1
	mcr p15, 0, r3, c7, c10, 1
@ 0 "" 2
	.arm
	.syntax unified
.LBB6134:
.LBB6135:
	.loc 2 26 0
	.syntax divided
@ 26 "/home/sel4/work/work2/kernel/include/arch/arm/armv/armv7-a/armv/machine.h" 1
	dmb
@ 0 "" 2
.LVL160:
	.arm
	.syntax unified
	add	r3, r3, #64
.LVL161:
.LBE6135:
.LBE6134:
.LBE6133:
.LBE6132:
	.loc 16 26 0
	cmp	r3, r2
	bne	.L209
.LVL162:
.L210:
.LBE6131:
.LBE6130:
.LBB6136:
.LBB6137:
	.loc 2 21 0
	.syntax divided
@ 21 "/home/sel4/work/work2/kernel/include/arch/arm/armv/armv7-a/armv/machine.h" 1
	dsb
@ 0 "" 2
.LVL163:
	.arm
	.syntax unified
.LBE6137:
.LBE6136:
	.loc 16 54 0
	cmp	r0, r1
	lslcc	r0, r0, #6
.LVL164:
	lslcc	r1, r1, #6
	bcs	.L208
.LVL165:
.L211:
.LBB6138:
.LBB6139:
	.loc 17 344 0 discriminator 3
	.syntax divided
@ 344 "/home/sel4/work/work2/kernel/include/arch/arm/arch/32/mode/machine.h" 1
	mcr p15, 0, r0, c7, c14, 1
@ 0 "" 2
	.arm
	.syntax unified
.LBB6140:
.LBB6141:
	.loc 2 21 0 discriminator 3
	.syntax divided
@ 21 "/home/sel4/work/work2/kernel/include/arch/arm/armv/armv7-a/armv/machine.h" 1
	dsb
@ 0 "" 2
.LVL166:
	.arm
	.syntax unified
	add	r0, r0, #64
.LVL167:
.LBE6141:
.LBE6140:
.LBE6139:
.LBE6138:
	.loc 16 54 0 discriminator 3
	cmp	r0, r1
	bne	.L211
.LVL168:
.L208:
.LBB6142:
.LBB6143:
	.loc 2 21 0
	.syntax divided
@ 21 "/home/sel4/work/work2/kernel/include/arch/arm/armv/armv7-a/armv/machine.h" 1
	dsb
@ 0 "" 2
	.arm
	.syntax unified
.LBE6143:
.LBE6142:
	.loc 16 60 0
	bx	lr
	.cfi_endproc
.LFE542:
	.size	cleanInvalidateCacheRange_RAM, .-cleanInvalidateCacheRange_RAM
	.align	2
	.global	cleanCacheRange_RAM
	.syntax unified
	.arm
	.fpu softvfp
	.type	cleanCacheRange_RAM, %function
cleanCacheRange_RAM:
.LFB543:
	.loc 16 64 0
	.cfi_startproc
	@ args = 0, pretend = 0, frame = 0
	@ frame_needed = 0, uses_anonymous_args = 0
	@ link register save eliminated.
.LVL169:
.LBB6144:
.LBB6145:
	.loc 16 26 0
	lsr	r1, r1, #6
.LVL170:
	lsr	r0, r0, #6
.LVL171:
	add	r1, r1, #1
	cmp	r0, r1
	lslcc	r0, r0, #6
.LVL172:
	lslcc	r1, r1, #6
	bcs	.L218
.LVL173:
.L217:
.LBB6146:
.LBB6147:
	.loc 17 266 0
	.syntax divided
@ 266 "/home/sel4/work/work2/kernel/include/arch/arm/arch/32/mode/machine.h" 1
	mcr p15, 0, r0, c7, c10, 1
@ 0 "" 2
	.arm
	.syntax unified
.LBB6148:
.LBB6149:
	.loc 2 26 0
	.syntax divided
@ 26 "/home/sel4/work/work2/kernel/include/arch/arm/armv/armv7-a/armv/machine.h" 1
	dmb
@ 0 "" 2
.LVL174:
	.arm
	.syntax unified
	add	r0, r0, #64
.LVL175:
.LBE6149:
.LBE6148:
.LBE6147:
.LBE6146:
	.loc 16 26 0
	cmp	r0, r1
	bne	.L217
.LVL176:
.L218:
.LBE6145:
.LBE6144:
.LBB6150:
.LBB6151:
	.loc 2 21 0
	.syntax divided
@ 21 "/home/sel4/work/work2/kernel/include/arch/arm/armv/armv7-a/armv/machine.h" 1
	dsb
@ 0 "" 2
.LVL177:
	.arm
	.syntax unified
.LBE6151:
.LBE6150:
	.loc 16 83 0
	bx	lr
	.cfi_endproc
.LFE543:
	.size	cleanCacheRange_RAM, .-cleanCacheRange_RAM
	.align	2
	.global	cleanCacheRange_PoU
	.syntax unified
	.arm
	.fpu softvfp
	.type	cleanCacheRange_PoU, %function
cleanCacheRange_PoU:
.LFB544:
	.loc 16 87 0
	.cfi_startproc
	@ args = 0, pretend = 0, frame = 0
	@ frame_needed = 0, uses_anonymous_args = 0
	@ link register save eliminated.
.LVL178:
	.loc 16 96 0
	lsr	r1, r1, #6
.LVL179:
	lsr	r0, r0, #6
.LVL180:
	add	r1, r1, #1
	cmp	r0, r1
	bcs	.L221
	lsl	r0, r0, #6
.LVL181:
	lsl	r1, r1, #6
.LVL182:
.L223:
.LBB6152:
.LBB6153:
	.loc 17 284 0 discriminator 3
	.syntax divided
@ 284 "/home/sel4/work/work2/kernel/include/arch/arm/arch/32/mode/machine.h" 1
	mcr p15, 0, r0, c7, c10, 1
@ 0 "" 2
	.arm
	.syntax unified
.LBB6154:
.LBB6155:
	.loc 2 26 0 discriminator 3
	.syntax divided
@ 26 "/home/sel4/work/work2/kernel/include/arch/arm/armv/armv7-a/armv/machine.h" 1
	dmb
@ 0 "" 2
.LVL183:
	.arm
	.syntax unified
	add	r0, r0, #64
.LVL184:
.LBE6155:
.LBE6154:
.LBE6153:
.LBE6152:
	.loc 16 96 0 discriminator 3
	cmp	r0, r1
	bne	.L223
.LVL185:
.L221:
	.loc 16 100 0
	bx	lr
	.cfi_endproc
.LFE544:
	.size	cleanCacheRange_PoU, .-cleanCacheRange_PoU
	.align	2
	.global	invalidateCacheRange_RAM
	.syntax unified
	.arm
	.fpu softvfp
	.type	invalidateCacheRange_RAM, %function
invalidateCacheRange_RAM:
.LFB545:
	.loc 16 104 0
	.cfi_startproc
	@ args = 0, pretend = 0, frame = 0
	@ frame_needed = 0, uses_anonymous_args = 0
	@ link register save eliminated.
.LVL186:
	.loc 16 113 0
	bic	r3, r0, #63
	cmp	r0, r3
.LBB6156:
.LBB6157:
.LBB6158:
	.loc 16 26 0
	lsr	r0, r0, #6
.LVL187:
.LBE6158:
.LBE6157:
.LBE6156:
	.loc 16 113 0
	beq	.L228
.LVL188:
.LBB6169:
.LBB6165:
.LBB6163:
	.loc 16 26 0
	add	r2, r0, #1
.LVL189:
	cmp	r0, r2
	bcc	.L229
.LVL190:
.L230:
.LBE6163:
.LBE6165:
.LBB6166:
.LBB6167:
	.loc 2 21 0
	.syntax divided
@ 21 "/home/sel4/work/work2/kernel/include/arch/arm/armv/armv7-a/armv/machine.h" 1
	dsb
@ 0 "" 2
.LVL191:
	.arm
	.syntax unified
.L228:
.LBE6167:
.LBE6166:
.LBE6169:
	.loc 16 116 0
	add	r3, r1, #1
	tst	r3, #63
	lsreq	r2, r1, #6
	addeq	r2, r2, #1
	beq	.L232
.LVL192:
	lsr	r3, r1, #6
.LVL193:
.LBB6170:
.LBB6171:
.LBB6172:
	.loc 16 26 0
	add	r2, r3, #1
	cmp	r3, r2
	bcc	.L233
.LVL194:
.L234:
.LBE6172:
.LBE6171:
.LBB6178:
.LBB6179:
	.loc 2 21 0
	.syntax divided
@ 21 "/home/sel4/work/work2/kernel/include/arch/arm/armv/armv7-a/armv/machine.h" 1
	dsb
@ 0 "" 2
.LVL195:
	.arm
	.syntax unified
.L232:
.LBE6179:
.LBE6178:
.LBE6170:
	.loc 16 137 0
	cmp	r0, r2
	lslcc	r3, r0, #6
	bcs	.L237
.LVL196:
.L236:
.LBB6181:
.LBB6182:
	.loc 17 306 0 discriminator 3
	.syntax divided
@ 306 "/home/sel4/work/work2/kernel/include/arch/arm/arch/32/mode/machine.h" 1
	mcr p15, 0, r3, c7, c6, 1
@ 0 "" 2
	.arm
	.syntax unified
.LBB6183:
.LBB6184:
	.loc 2 26 0 discriminator 3
	.syntax divided
@ 26 "/home/sel4/work/work2/kernel/include/arch/arm/armv/armv7-a/armv/machine.h" 1
	dmb
@ 0 "" 2
.LVL197:
	.arm
	.syntax unified
.LBE6184:
.LBE6183:
.LBE6182:
.LBE6181:
	.loc 16 137 0 discriminator 3
	add	r0, r0, #1
.LVL198:
	add	r3, r3, #64
.LVL199:
	cmp	r0, r2
	bne	.L236
.LVL200:
.L237:
.LBB6185:
.LBB6186:
	.loc 2 21 0
	.syntax divided
@ 21 "/home/sel4/work/work2/kernel/include/arch/arm/armv/armv7-a/armv/machine.h" 1
	dsb
@ 0 "" 2
	.arm
	.syntax unified
.LBE6186:
.LBE6185:
	.loc 16 143 0
	bx	lr
.LVL201:
.L229:
.LBB6187:
.LBB6168:
.LBB6164:
.LBB6159:
.LBB6160:
	.loc 17 266 0
	.syntax divided
@ 266 "/home/sel4/work/work2/kernel/include/arch/arm/arch/32/mode/machine.h" 1
	mcr p15, 0, r3, c7, c10, 1
@ 0 "" 2
	.arm
	.syntax unified
.LBB6161:
.LBB6162:
	.loc 2 26 0
	.syntax divided
@ 26 "/home/sel4/work/work2/kernel/include/arch/arm/armv/armv7-a/armv/machine.h" 1
	dmb
@ 0 "" 2
.LVL202:
	.arm
	.syntax unified
	b	.L230
.LVL203:
.L233:
.LBE6162:
.LBE6161:
.LBE6160:
.LBE6159:
.LBE6164:
.LBE6168:
.LBE6187:
.LBB6188:
.LBB6180:
.LBB6177:
	.loc 16 27 0
	bic	r1, r1, #63
.LVL204:
.LBB6173:
.LBB6174:
	.loc 17 266 0
	.syntax divided
@ 266 "/home/sel4/work/work2/kernel/include/arch/arm/arch/32/mode/machine.h" 1
	mcr p15, 0, r1, c7, c10, 1
@ 0 "" 2
	.arm
	.syntax unified
.LBB6175:
.LBB6176:
	.loc 2 26 0
	.syntax divided
@ 26 "/home/sel4/work/work2/kernel/include/arch/arm/armv/armv7-a/armv/machine.h" 1
	dmb
@ 0 "" 2
.LVL205:
	.arm
	.syntax unified
	b	.L234
.LBE6176:
.LBE6175:
.LBE6174:
.LBE6173:
.LBE6177:
.LBE6180:
.LBE6188:
	.cfi_endproc
.LFE545:
	.size	invalidateCacheRange_RAM, .-invalidateCacheRange_RAM
	.align	2
	.global	invalidateCacheRange_I
	.syntax unified
	.arm
	.fpu softvfp
	.type	invalidateCacheRange_I, %function
invalidateCacheRange_I:
.LFB546:
	.loc 16 147 0
	.cfi_startproc
	@ args = 0, pretend = 0, frame = 0
	@ frame_needed = 0, uses_anonymous_args = 0
	@ link register save eliminated.
.LVL206:
	.loc 16 151 0
	lsr	r1, r1, #6
.LVL207:
	lsr	r0, r0, #6
.LVL208:
	add	r1, r1, #1
	cmp	r0, r1
	bcs	.L240
	lsl	r0, r0, #6
.LVL209:
	lsl	r1, r1, #6
.LVL210:
.L242:
.LBB6189:
.LBB6190:
	.loc 17 318 0 discriminator 3
	.syntax divided
@ 318 "/home/sel4/work/work2/kernel/include/arch/arm/arch/32/mode/machine.h" 1
	mcr p15, 0, r0, c7, c5, 1
@ 0 "" 2
	.arm
	.syntax unified
.LBB6191:
.LBB6192:
	.loc 2 31 0 discriminator 3
	.syntax divided
@ 31 "/home/sel4/work/work2/kernel/include/arch/arm/armv/armv7-a/armv/machine.h" 1
	isb
@ 0 "" 2
.LVL211:
	.arm
	.syntax unified
	add	r0, r0, #64
.LVL212:
.LBE6192:
.LBE6191:
.LBE6190:
.LBE6189:
	.loc 16 151 0 discriminator 3
	cmp	r0, r1
	bne	.L242
.LVL213:
.L240:
	.loc 16 155 0
	bx	lr
	.cfi_endproc
.LFE546:
	.size	invalidateCacheRange_I, .-invalidateCacheRange_I
	.align	2
	.global	branchFlushRange
	.syntax unified
	.arm
	.fpu softvfp
	.type	branchFlushRange, %function
branchFlushRange:
.LFB547:
	.loc 16 159 0
	.cfi_startproc
	@ args = 0, pretend = 0, frame = 0
	@ frame_needed = 0, uses_anonymous_args = 0
	@ link register save eliminated.
.LVL214:
	.loc 16 163 0
	lsr	r1, r1, #6
.LVL215:
	lsr	r0, r0, #6
.LVL216:
	add	r1, r1, #1
	cmp	r0, r1
	bcs	.L245
	lsl	r0, r0, #6
.LVL217:
	lsl	r1, r1, #6
.LVL218:
.L247:
.LBB6193:
.LBB6194:
	.loc 17 352 0 discriminator 3
	.syntax divided
@ 352 "/home/sel4/work/work2/kernel/include/arch/arm/arch/32/mode/machine.h" 1
	mcr p15, 0, r0, c7, c5, 7
@ 0 "" 2
.LVL219:
	.arm
	.syntax unified
	add	r0, r0, #64
.LVL220:
.LBE6194:
.LBE6193:
	.loc 16 163 0 discriminator 3
	cmp	r1, r0
	bne	.L247
.LVL221:
.L245:
	.loc 16 167 0
	bx	lr
	.cfi_endproc
.LFE547:
	.size	branchFlushRange, .-branchFlushRange
	.align	2
	.global	cleanCaches_PoU
	.syntax unified
	.arm
	.fpu softvfp
	.type	cleanCaches_PoU, %function
cleanCaches_PoU:
.LFB548:
	.loc 16 171 0
	.cfi_startproc
	@ args = 0, pretend = 0, frame = 0
	@ frame_needed = 0, uses_anonymous_args = 0
	str	r4, [sp, #-8]!
	.cfi_def_cfa_offset 8
	.cfi_offset 4, -8
	.cfi_offset 14, -4
	str	lr, [sp, #4]
.LBB6195:
.LBB6196:
	.loc 2 21 0
	.syntax divided
@ 21 "/home/sel4/work/work2/kernel/include/arch/arm/armv/armv7-a/armv/machine.h" 1
	dsb
@ 0 "" 2
	.arm
	.syntax unified
.LBE6196:
.LBE6195:
	.loc 16 173 0
	bl	clean_D_PoU
.LVL222:
.LBB6197:
.LBB6198:
	.loc 2 21 0
	.syntax divided
@ 21 "/home/sel4/work/work2/kernel/include/arch/arm/armv/armv7-a/armv/machine.h" 1
	dsb
@ 0 "" 2
	.arm
	.syntax unified
.LBE6198:
.LBE6197:
.LBB6199:
.LBB6200:
	.loc 17 330 0
	mov	r3, #0
	.syntax divided
@ 330 "/home/sel4/work/work2/kernel/include/arch/arm/arch/32/mode/machine.h" 1
	mcr p15, 0, r3, c7, c5, 0
@ 0 "" 2
	.arm
	.syntax unified
.LBB6201:
.LBB6202:
	.loc 2 31 0
	.syntax divided
@ 31 "/home/sel4/work/work2/kernel/include/arch/arm/armv/armv7-a/armv/machine.h" 1
	isb
@ 0 "" 2
	.arm
	.syntax unified
.LBE6202:
.LBE6201:
.LBE6200:
.LBE6199:
.LBB6203:
.LBB6204:
	.loc 2 21 0
	.syntax divided
@ 21 "/home/sel4/work/work2/kernel/include/arch/arm/armv/armv7-a/armv/machine.h" 1
	dsb
@ 0 "" 2
	.arm
	.syntax unified
.LBE6204:
.LBE6203:
	.loc 16 177 0
	ldr	r4, [sp]
	.cfi_restore 4
	add	sp, sp, #4
	.cfi_def_cfa_offset 4
	ldr	pc, [sp], #4
	.cfi_restore 15
	.cfi_def_cfa_offset 0
	.cfi_endproc
.LFE548:
	.size	cleanCaches_PoU, .-cleanCaches_PoU
	.align	2
	.global	cleanInvalidateL1Caches
	.syntax unified
	.arm
	.fpu softvfp
	.type	cleanInvalidateL1Caches, %function
cleanInvalidateL1Caches:
.LFB549:
	.loc 16 181 0
	.cfi_startproc
	@ args = 0, pretend = 0, frame = 0
	@ frame_needed = 0, uses_anonymous_args = 0
	str	r4, [sp, #-8]!
	.cfi_def_cfa_offset 8
	.cfi_offset 4, -8
	.cfi_offset 14, -4
	str	lr, [sp, #4]
.LBB6205:
.LBB6206:
	.loc 2 21 0
	.syntax divided
@ 21 "/home/sel4/work/work2/kernel/include/arch/arm/armv/armv7-a/armv/machine.h" 1
	dsb
@ 0 "" 2
	.arm
	.syntax unified
.LBE6206:
.LBE6205:
	.loc 16 183 0
	bl	cleanInvalidate_D_PoC
.LVL223:
.LBB6207:
.LBB6208:
	.loc 2 21 0
	.syntax divided
@ 21 "/home/sel4/work/work2/kernel/include/arch/arm/armv/armv7-a/armv/machine.h" 1
	dsb
@ 0 "" 2
	.arm
	.syntax unified
.LBE6208:
.LBE6207:
.LBB6209:
.LBB6210:
	.loc 17 330 0
	mov	r3, #0
	.syntax divided
@ 330 "/home/sel4/work/work2/kernel/include/arch/arm/arch/32/mode/machine.h" 1
	mcr p15, 0, r3, c7, c5, 0
@ 0 "" 2
	.arm
	.syntax unified
.LBB6211:
.LBB6212:
	.loc 2 31 0
	.syntax divided
@ 31 "/home/sel4/work/work2/kernel/include/arch/arm/armv/armv7-a/armv/machine.h" 1
	isb
@ 0 "" 2
	.arm
	.syntax unified
.LBE6212:
.LBE6211:
.LBE6210:
.LBE6209:
.LBB6213:
.LBB6214:
	.loc 2 21 0
	.syntax divided
@ 21 "/home/sel4/work/work2/kernel/include/arch/arm/armv/armv7-a/armv/machine.h" 1
	dsb
@ 0 "" 2
	.arm
	.syntax unified
.LBE6214:
.LBE6213:
	.loc 16 187 0
	ldr	r4, [sp]
	.cfi_restore 4
	add	sp, sp, #4
	.cfi_def_cfa_offset 4
	ldr	pc, [sp], #4
	.cfi_restore 15
	.cfi_def_cfa_offset 0
	.cfi_endproc
.LFE549:
	.size	cleanInvalidateL1Caches, .-cleanInvalidateL1Caches
	.align	2
	.global	arch_clean_invalidate_caches
	.syntax unified
	.arm
	.fpu softvfp
	.type	arch_clean_invalidate_caches, %function
arch_clean_invalidate_caches:
.LFB550:
	.loc 16 191 0
	.cfi_startproc
	@ args = 0, pretend = 0, frame = 0
	@ frame_needed = 0, uses_anonymous_args = 0
	str	r4, [sp, #-8]!
	.cfi_def_cfa_offset 8
	.cfi_offset 4, -8
	.cfi_offset 14, -4
	str	lr, [sp, #4]
.LBB6215:
.LBB6216:
.LBB6217:
.LBB6218:
	.loc 2 21 0
	.syntax divided
@ 21 "/home/sel4/work/work2/kernel/include/arch/arm/armv/armv7-a/armv/machine.h" 1
	dsb
@ 0 "" 2
	.arm
	.syntax unified
.LBE6218:
.LBE6217:
	.loc 16 173 0
	bl	clean_D_PoU
.LVL224:
.LBB6219:
.LBB6220:
	.loc 2 21 0
	.syntax divided
@ 21 "/home/sel4/work/work2/kernel/include/arch/arm/armv/armv7-a/armv/machine.h" 1
	dsb
@ 0 "" 2
	.arm
	.syntax unified
.LBE6220:
.LBE6219:
.LBB6221:
.LBB6222:
	.loc 17 330 0
	mov	r4, #0
	.syntax divided
@ 330 "/home/sel4/work/work2/kernel/include/arch/arm/arch/32/mode/machine.h" 1
	mcr p15, 0, r4, c7, c5, 0
@ 0 "" 2
	.arm
	.syntax unified
.LBB6223:
.LBB6224:
	.loc 2 31 0
	.syntax divided
@ 31 "/home/sel4/work/work2/kernel/include/arch/arm/armv/armv7-a/armv/machine.h" 1
	isb
@ 0 "" 2
	.arm
	.syntax unified
.LBE6224:
.LBE6223:
.LBE6222:
.LBE6221:
.LBB6225:
.LBB6226:
	.loc 2 21 0
	.syntax divided
@ 21 "/home/sel4/work/work2/kernel/include/arch/arm/armv/armv7-a/armv/machine.h" 1
	dsb
@ 0 "" 2
	.arm
	.syntax unified
.LBE6226:
.LBE6225:
.LBE6216:
.LBE6215:
.LBB6227:
.LBB6228:
.LBB6229:
.LBB6230:
	.syntax divided
@ 21 "/home/sel4/work/work2/kernel/include/arch/arm/armv/armv7-a/armv/machine.h" 1
	dsb
@ 0 "" 2
	.arm
	.syntax unified
.LBE6230:
.LBE6229:
	.loc 16 183 0
	bl	cleanInvalidate_D_PoC
.LVL225:
.LBB6231:
.LBB6232:
	.loc 2 21 0
	.syntax divided
@ 21 "/home/sel4/work/work2/kernel/include/arch/arm/armv/armv7-a/armv/machine.h" 1
	dsb
@ 0 "" 2
	.arm
	.syntax unified
.LBE6232:
.LBE6231:
.LBB6233:
.LBB6234:
	.loc 17 330 0
	.syntax divided
@ 330 "/home/sel4/work/work2/kernel/include/arch/arm/arch/32/mode/machine.h" 1
	mcr p15, 0, r4, c7, c5, 0
@ 0 "" 2
	.arm
	.syntax unified
.LBB6235:
.LBB6236:
	.loc 2 31 0
	.syntax divided
@ 31 "/home/sel4/work/work2/kernel/include/arch/arm/armv/armv7-a/armv/machine.h" 1
	isb
@ 0 "" 2
	.arm
	.syntax unified
.LBE6236:
.LBE6235:
.LBE6234:
.LBE6233:
.LBB6237:
.LBB6238:
	.loc 2 21 0
	.syntax divided
@ 21 "/home/sel4/work/work2/kernel/include/arch/arm/armv/armv7-a/armv/machine.h" 1
	dsb
@ 0 "" 2
	.arm
	.syntax unified
.LBE6238:
.LBE6237:
.LBE6228:
.LBE6227:
.LBB6239:
.LBB6240:
	.loc 2 31 0
	.syntax divided
@ 31 "/home/sel4/work/work2/kernel/include/arch/arm/armv/armv7-a/armv/machine.h" 1
	isb
@ 0 "" 2
	.arm
	.syntax unified
.LBE6240:
.LBE6239:
	.loc 16 196 0
	ldr	r4, [sp]
	.cfi_restore 4
	add	sp, sp, #4
	.cfi_def_cfa_offset 4
	ldr	pc, [sp], #4
	.cfi_restore 15
	.cfi_def_cfa_offset 0
	.cfi_endproc
.LFE550:
	.size	arch_clean_invalidate_caches, .-arch_clean_invalidate_caches
	.align	2
	.global	Arch_initBreakpointContext
	.syntax unified
	.arm
	.fpu softvfp
	.type	Arch_initBreakpointContext, %function
Arch_initBreakpointContext:
.LFB567:
	.file 21 "/home/sel4/work/work2/kernel/src/arch/arm/machine/debug.c"
	.loc 21 1202 0
	.cfi_startproc
	@ args = 0, pretend = 0, frame = 0
	@ frame_needed = 0, uses_anonymous_args = 0
.LVL226:
	.loc 21 1203 0
	movw	r1, #:lower16:armKSNullBreakpointState
	.loc 21 1202 0
	str	r4, [sp, #-8]!
	.cfi_def_cfa_offset 8
	.cfi_offset 4, -8
	.cfi_offset 14, -4
	.loc 21 1203 0
	add	r0, r0, #76
.LVL227:
	movt	r1, #:upper16:armKSNullBreakpointState
	mov	r2, #96
	.loc 21 1202 0
	str	lr, [sp, #4]
	.loc 21 1203 0
	bl	memcpy
.LVL228:
	.loc 21 1204 0
	ldr	r4, [sp]
	.cfi_restore 4
	add	sp, sp, #4
	.cfi_def_cfa_offset 4
	ldr	pc, [sp], #4
	.cfi_restore 15
	.cfi_def_cfa_offset 0
	.cfi_endproc
.LFE567:
	.size	Arch_initBreakpointContext, .-Arch_initBreakpointContext
	.align	2
	.global	Arch_debugAssociateVCPUTCB
	.syntax unified
	.arm
	.fpu softvfp
	.type	Arch_debugAssociateVCPUTCB, %function
Arch_debugAssociateVCPUTCB:
.LFB570:
	.loc 21 1268 0
	.cfi_startproc
	@ args = 0, pretend = 0, frame = 0
	@ frame_needed = 0, uses_anonymous_args = 0
	@ link register save eliminated.
.LVL229:
	.loc 21 1275 0
	movw	r3, #1023
	str	r3, [r0, #156]
	.loc 21 1276 0
	bx	lr
	.cfi_endproc
.LFE570:
	.size	Arch_debugAssociateVCPUTCB, .-Arch_debugAssociateVCPUTCB
	.align	2
	.global	Arch_debugDissociateVCPUTCB
	.syntax unified
	.arm
	.fpu softvfp
	.type	Arch_debugDissociateVCPUTCB, %function
Arch_debugDissociateVCPUTCB:
.LFB571:
	.loc 21 1280 0
	.cfi_startproc
	@ args = 0, pretend = 0, frame = 0
	@ frame_needed = 0, uses_anonymous_args = 0
	@ link register save eliminated.
.LVL230:
	.loc 21 1281 0
	mov	r3, #0
	str	r3, [r0, #156]
	.loc 21 1282 0
	bx	lr
	.cfi_endproc
.LFE571:
	.size	Arch_debugDissociateVCPUTCB, .-Arch_debugDissociateVCPUTCB
	.section	.boot.text
	.align	2
	.global	arm_errata
	.syntax unified
	.arm
	.fpu softvfp
	.type	arm_errata, %function
arm_errata:
.LFB575:
	.file 22 "/home/sel4/work/work2/kernel/src/arch/arm/machine/errata.c"
	.loc 22 72 0
	.cfi_startproc
	@ args = 0, pretend = 0, frame = 0
	@ frame_needed = 0, uses_anonymous_args = 0
	@ link register save eliminated.
.LBB6249:
.LBB6250:
.LBB6251:
.LBB6252:
	.loc 17 79 0
	.syntax divided
@ 79 "/home/sel4/work/work2/kernel/include/arch/arm/arch/32/mode/machine.h" 1
	mrc  p15, 0, r3, c0, c0, 0
@ 0 "" 2
	.arm
	.syntax unified
.LBE6252:
.LBE6251:
	.loc 22 63 0
	movw	r0, #3087
	.loc 22 60 0
	ubfx	r2, r3, #4, #12
	.loc 22 63 0
	ubfx	r1, r3, #20, #4
	.loc 22 59 0
	and	r3, r3, #15
	.loc 22 63 0
	cmp	r2, r0
	cmpeq	r1, #0
	moveq	r2, #1
	movne	r2, #0
	cmp	r3, #4
	movhi	r3, #0
	andls	r3, r2, #1
	cmp	r3, #0
	beq	.L259
.LBB6253:
.LBB6254:
	.loc 17 101 0
	.syntax divided
@ 101 "/home/sel4/work/work2/kernel/include/arch/arm/arch/32/mode/machine.h" 1
	mrc  p15, 0, r3, c1, c0, 1
@ 0 "" 2
.LVL231:
	.arm
	.syntax unified
.LBE6254:
.LBE6253:
	.loc 22 65 0
	orr	r3, r3, #2
.LVL232:
.LBB6255:
.LBB6256:
	.loc 17 108 0
	.syntax divided
@ 108 "/home/sel4/work/work2/kernel/include/arch/arm/arch/32/mode/machine.h" 1
	mcr  p15, 0, r3, c1, c0, 1
@ 0 "" 2
.LVL233:
	.arm
	.syntax unified
.L259:
.LBE6256:
.LBE6255:
.LBE6250:
.LBE6249:
	.loc 22 79 0
	bx	lr
	.cfi_endproc
.LFE575:
	.size	arm_errata, .-arm_errata
	.align	2
	.global	initIRQController
	.syntax unified
	.arm
	.fpu softvfp
	.type	initIRQController, %function
initIRQController:
.LFB578:
	.loc 5 135 0
	.cfi_startproc
	@ args = 0, pretend = 0, frame = 0
	@ frame_needed = 0, uses_anonymous_args = 0
	@ link register save eliminated.
	.loc 5 136 0
	b	dist_init
.LVL234:
	.cfi_endproc
.LFE578:
	.size	initIRQController, .-initIRQController
	.align	2
	.global	cpu_initLocalIRQController
	.syntax unified
	.arm
	.fpu softvfp
	.type	cpu_initLocalIRQController, %function
cpu_initLocalIRQController:
.LFB579:
	.loc 5 140 0
	.cfi_startproc
	@ args = 0, pretend = 0, frame = 0
	@ frame_needed = 0, uses_anonymous_args = 0
	@ link register save eliminated.
	.loc 5 141 0
	b	cpu_iface_init
.LVL235:
	.cfi_endproc
.LFE579:
	.size	cpu_initLocalIRQController, .-cpu_initLocalIRQController
	.text
	.align	2
	.global	Arch_decodeIRQControlInvocation
	.syntax unified
	.arm
	.fpu softvfp
	.type	Arch_decodeIRQControlInvocation, %function
Arch_decodeIRQControlInvocation:
.LFB581:
	.file 23 "/home/sel4/work/work2/kernel/src/arch/arm/object/interrupt.c"
	.loc 23 20 0
	.cfi_startproc
	@ args = 20, pretend = 8, frame = 0
	@ frame_needed = 0, uses_anonymous_args = 0
	@ link register save eliminated.
.LVL236:
	.loc 23 21 0
	movw	r2, #:lower16:current_syscall_error
.LVL237:
	.loc 23 20 0
	sub	sp, sp, #8
	.cfi_def_cfa_offset 8
	.loc 23 21 0
	mov	r1, #3
.LVL238:
	movt	r2, #:upper16:current_syscall_error
	.loc 23 23 0
	mov	r0, r1
.LVL239:
	.loc 23 20 0
	str	r3, [sp, #4]
	.loc 23 23 0
	add	sp, sp, #8
	.cfi_def_cfa_offset 0
	.loc 23 21 0
	str	r1, [r2, #24]
	.loc 23 23 0
	bx	lr
	.cfi_endproc
.LFE581:
	.size	Arch_decodeIRQControlInvocation, .-Arch_decodeIRQControlInvocation
	.align	2
	.global	Arch_decodeTransfer
	.syntax unified
	.arm
	.fpu softvfp
	.type	Arch_decodeTransfer, %function
Arch_decodeTransfer:
.LFB582:
	.file 24 "/home/sel4/work/work2/kernel/src/arch/arm/object/tcb.c"
	.loc 24 21 0
	.cfi_startproc
	@ args = 0, pretend = 0, frame = 0
	@ frame_needed = 0, uses_anonymous_args = 0
	@ link register save eliminated.
.LVL240:
	.loc 24 23 0
	mov	r0, #0
.LVL241:
	bx	lr
	.cfi_endproc
.LFE582:
	.size	Arch_decodeTransfer, .-Arch_decodeTransfer
	.align	2
	.global	Arch_performTransfer
	.syntax unified
	.arm
	.fpu softvfp
	.type	Arch_performTransfer, %function
Arch_performTransfer:
.LFB583:
	.loc 24 27 0
	.cfi_startproc
	@ args = 0, pretend = 0, frame = 0
	@ frame_needed = 0, uses_anonymous_args = 0
	@ link register save eliminated.
.LVL242:
	.loc 24 29 0
	mov	r0, #0
.LVL243:
	bx	lr
	.cfi_endproc
.LFE583:
	.size	Arch_performTransfer, .-Arch_performTransfer
	.align	2
	.global	Arch_setTCBIPCBuffer
	.syntax unified
	.arm
	.fpu softvfp
	.type	Arch_setTCBIPCBuffer, %function
Arch_setTCBIPCBuffer:
.LFB584:
	.loc 24 46 0
	.cfi_startproc
	@ args = 0, pretend = 0, frame = 0
	@ frame_needed = 0, uses_anonymous_args = 0
	@ link register save eliminated.
.LVL244:
.LBB6257:
.LBB6258:
	.loc 10 30 0
	str	r1, [r0, #72]
.LVL245:
.LBE6258:
.LBE6257:
	.loc 24 53 0
	bx	lr
	.cfi_endproc
.LFE584:
	.size	Arch_setTCBIPCBuffer, .-Arch_setTCBIPCBuffer
	.align	2
	.global	vcpu_init
	.syntax unified
	.arm
	.fpu softvfp
	.type	vcpu_init, %function
vcpu_init:
.LFB635:
	.file 25 "/home/sel4/work/work2/kernel/src/arch/arm/object/vcpu.c"
	.loc 25 860 0
	.cfi_startproc
	@ args = 0, pretend = 0, frame = 0
	@ frame_needed = 0, uses_anonymous_args = 0
	@ link register save eliminated.
.LVL246:
	.loc 25 862 0
	movw	r3, #6268
	.loc 25 863 0
	mov	r1, #64
	.loc 25 862 0
	movt	r3, 197
	.loc 25 865 0
	mov	r2, #1
	.loc 25 862 0
	str	r3, [r0, #4]
	.loc 25 863 0
	str	r1, [r0, #8]
	.loc 25 865 0
	str	r2, [r0, #12]
	.loc 25 866 0
	bx	lr
	.cfi_endproc
.LFE635:
	.size	vcpu_init, .-vcpu_init
	.align	2
	.global	invokeVCPUInjectIRQ
	.syntax unified
	.arm
	.fpu softvfp
	.type	invokeVCPUInjectIRQ, %function
invokeVCPUInjectIRQ:
.LFB645:
	.loc 25 1015 0
	.cfi_startproc
	@ args = 0, pretend = 0, frame = 0
	@ frame_needed = 0, uses_anonymous_args = 0
	@ link register save eliminated.
.LVL247:
	.loc 25 1016 0
	movw	r3, #:lower16:armHSCurVCPU
	movt	r3, #:upper16:armHSCurVCPU
	ldr	r3, [r3]
	cmp	r3, r0
	bne	.L273
.LVL248:
.LBB6259:
.LBB6260:
	.loc 25 398 0
	lsl	r1, r1, #2
.LVL249:
	movw	r3, #25087
	movt	r3, 65520
	add	r3, r1, r3
.LBE6260:
.LBE6259:
	.loc 25 1023 0
	mov	r0, #0
.LVL250:
.LBB6262:
.LBB6261:
	.loc 25 398 0
	str	r2, [r3, #-255]
.LBE6261:
.LBE6262:
	.loc 25 1023 0
	bx	lr
.LVL251:
.L273:
	.loc 25 1019 0
	add	r1, r0, r1, lsl #2
.LVL252:
	.loc 25 1023 0
	mov	r0, #0
.LVL253:
	.loc 25 1019 0
	str	r2, [r1, #24]
	.loc 25 1023 0
	bx	lr
	.cfi_endproc
.LFE645:
	.size	invokeVCPUInjectIRQ, .-invokeVCPUInjectIRQ
	.section	.boot.text
	.align	2
	.global	init_core_state
	.syntax unified
	.arm
	.fpu softvfp
	.type	init_core_state, %function
init_core_state:
.LFB677:
	.file 26 "/home/sel4/work/work2/kernel/src/kernel/boot.c"
	.loc 26 481 0
	.cfi_startproc
	@ args = 0, pretend = 0, frame = 0
	@ frame_needed = 0, uses_anonymous_args = 0
.LVL254:
	.loc 26 488 0
	sub	r2, r0, #1
	.loc 26 483 0
	movw	r3, #:lower16:ksActiveFPUState
	.loc 26 481 0
	str	lr, [sp, #-4]!
	.cfi_def_cfa_offset 4
	.cfi_offset 14, -4
	.loc 26 483 0
	movt	r3, #:upper16:ksActiveFPUState
	.loc 26 488 0
	cmn	r2, #3
	.loc 26 483 0
	mov	r2, #0
	.loc 26 487 0
	movw	r1, #:lower16:ksDebugTCBs
	movt	r1, #:upper16:ksDebugTCBs
	.loc 26 483 0
	str	r2, [r3]
.LBB6263:
	.loc 26 493 0
	movw	r3, #:lower16:ksIdleThread
.LBE6263:
	.loc 26 488 0
	bls	.L280
.LVL255:
.LBB6276:
	.loc 26 493 0
	movt	r3, #:upper16:ksIdleThread
.LBB6264:
.LBB6265:
	.file 27 "/home/sel4/work/work2/kernel/src/object/tcb.c"
	.loc 27 178 0
	mov	lr, r2
.LBE6265:
.LBE6264:
	.loc 26 493 0
	ldr	r3, [r3]
.LVL256:
.LBB6271:
.LBB6266:
	.loc 27 178 0
	str	r2, [r3, #524]
.L277:
.LBE6266:
.LBE6271:
.LBE6276:
	.loc 26 496 0
	movw	ip, #:lower16:ksSchedulerAction
	.loc 26 497 0
	movw	r2, #:lower16:ksCurThread
.LBB6277:
.LBB6272:
.LBB6267:
	.loc 27 185 0
	str	r3, [r1]
.LVL257:
.LBE6267:
.LBE6272:
.LBE6277:
	.loc 26 496 0
	movt	ip, #:upper16:ksSchedulerAction
	.loc 26 497 0
	movt	r2, #:upper16:ksCurThread
.LBB6278:
.LBB6273:
.LBB6268:
	.loc 27 184 0
	str	lr, [r3, #520]
.LBE6268:
.LBE6273:
.LBE6278:
	.loc 26 497 0
	str	r3, [r2]
	.loc 26 496 0
	str	r0, [ip]
	.loc 26 498 0
	ldr	pc, [sp], #4
.LVL258:
.L280:
.LBB6279:
	.loc 26 493 0
	movt	r3, #:upper16:ksIdleThread
.LBE6279:
.LBB6280:
.LBB6281:
	.loc 27 184 0
	str	r2, [r0, #520]
.LVL259:
.LBE6281:
.LBE6280:
.LBB6282:
.LBB6274:
.LBB6269:
	.loc 27 181 0
	mov	lr, r0
.LBE6269:
.LBE6274:
	.loc 26 493 0
	ldr	r3, [r3]
.LVL260:
.LBB6275:
.LBB6270:
	.loc 27 178 0
	str	r2, [r3, #524]
	.loc 27 181 0
	str	r3, [r0, #524]
	b	.L277
.LBE6270:
.LBE6275:
.LBE6282:
	.cfi_endproc
.LFE677:
	.size	init_core_state, .-init_core_state
	.align	2
	.global	bi_finalise
	.syntax unified
	.arm
	.fpu softvfp
	.type	bi_finalise, %function
bi_finalise:
.LFB682:
	.loc 26 596 0
	.cfi_startproc
	@ args = 0, pretend = 0, frame = 0
	@ frame_needed = 0, uses_anonymous_args = 0
	@ link register save eliminated.
.LVL261:
	.loc 26 598 0
	movw	r3, #:lower16:.LANCHOR2
	movt	r3, #:upper16:.LANCHOR2
	.loc 26 599 0
	ldr	r2, [r3, #16]
	ldr	r1, [r3, #20]
	.loc 26 598 0
	ldr	r3, [r3, #24]
.LVL262:
	.loc 26 599 0
	str	r1, [r2, #20]	@ unaligned
	str	r3, [r2, #24]	@ unaligned
	.loc 26 602 0
	bx	lr
	.cfi_endproc
.LFE682:
	.size	bi_finalise, .-bi_finalise
	.text
	.align	2
	.global	doNBRecvFailedTransfer
	.syntax unified
	.arm
	.fpu softvfp
	.type	doNBRecvFailedTransfer, %function
doNBRecvFailedTransfer:
.LFB705:
	.file 28 "/home/sel4/work/work2/kernel/src/kernel/thread.c"
	.loc 28 251 0
	.cfi_startproc
	@ args = 0, pretend = 0, frame = 0
	@ frame_needed = 0, uses_anonymous_args = 0
	@ link register save eliminated.
.LVL263:
.LBB6283:
.LBB6284:
	.loc 10 30 0
	mov	r3, #0
	str	r3, [r0]
.LVL264:
.LBE6284:
.LBE6283:
	.loc 28 254 0
	bx	lr
	.cfi_endproc
.LFE705:
	.size	doNBRecvFailedTransfer, .-doNBRecvFailedTransfer
	.align	2
	.global	setMCPriority
	.syntax unified
	.arm
	.fpu softvfp
	.type	setMCPriority, %function
setMCPriority:
.LFB712:
	.loc 28 360 0
	.cfi_startproc
	@ args = 0, pretend = 0, frame = 0
	@ frame_needed = 0, uses_anonymous_args = 0
	@ link register save eliminated.
.LVL265:
	.loc 28 361 0
	str	r1, [r0, #484]
	.loc 28 362 0
	bx	lr
	.cfi_endproc
.LFE712:
	.size	setMCPriority, .-setMCPriority
	.align	2
	.global	putchar
	.syntax unified
	.arm
	.fpu softvfp
	.type	putchar, %function
putchar:
.LFB725:
	.loc 8 20 0
	.cfi_startproc
	@ args = 0, pretend = 0, frame = 0
	@ frame_needed = 0, uses_anonymous_args = 0
	@ link register save eliminated.
.LVL266:
.LBB6285:
.LBB6286:
.LBB6287:
	.loc 4 44 0
	mvn	r2, #1040384
.L285:
	ldr	r3, [r2, #-4079]
	tst	r3, #2
	beq	.L285
.LBE6287:
.LBE6286:
.LBE6285:
	.loc 8 22 0
	cmp	r0, #10
.LBB6290:
.LBB6289:
.LBB6288:
	.loc 4 45 0
	str	r0, [r2, #-4063]
.LVL267:
.LBE6288:
.LBE6289:
.LBE6290:
	.loc 8 22 0
	beq	.L289
	.loc 8 25 0
	bx	lr
.L289:
	b	putchar.part.64
.LVL268:
	.cfi_endproc
.LFE725:
	.size	putchar, .-putchar
	.align	2
	.global	print_unsigned_long
	.syntax unified
	.arm
	.fpu softvfp
	.type	print_unsigned_long, %function
print_unsigned_long:
.LFB730:
	.loc 8 77 0
	.cfi_startproc
	@ args = 0, pretend = 0, frame = 0
	@ frame_needed = 0, uses_anonymous_args = 0
	@ link register save eliminated.
.LVL269:
	.loc 8 86 0
	cmp	r1, #10
	cmpne	r1, #16
	bne	.L293
	.loc 8 90 0
	cmp	r0, #0
.LBB6291:
.LBB6292:
.LBB6293:
.LBB6294:
	.loc 4 44 0
	mvneq	r2, #1040384
.LBE6294:
.LBE6293:
.LBE6292:
.LBE6291:
	.loc 8 90 0
	beq	.L292
	b	print_unsigned_long.part.65
.LVL270:
.L292:
.LBB6301:
.LBB6299:
.LBB6297:
.LBB6295:
	.loc 4 44 0
	ldr	r3, [r2, #-4079]
	tst	r3, #2
	beq	.L292
	.loc 4 45 0
	mov	r3, #48
.LBE6295:
.LBE6297:
.LBE6299:
.LBE6301:
	.loc 8 92 0
	mov	r0, #1
.LVL271:
.LBB6302:
.LBB6300:
.LBB6298:
.LBB6296:
	.loc 4 45 0
	str	r3, [r2, #-4063]
.LBE6296:
.LBE6298:
.LBE6300:
.LBE6302:
	.loc 8 110 0
	bx	lr
.LVL272:
.L293:
	.loc 8 87 0
	mov	r0, #0
.LVL273:
	.loc 8 110 0
	bx	lr
	.cfi_endproc
.LFE730:
	.size	print_unsigned_long, .-print_unsigned_long
	.align	2
	.global	puts
	.syntax unified
	.arm
	.fpu softvfp
	.type	puts, %function
puts:
.LFB735:
	.loc 8 300 0
	.cfi_startproc
	@ args = 0, pretend = 0, frame = 0
	@ frame_needed = 0, uses_anonymous_args = 0
.LVL274:
	str	r4, [sp, #-8]!
	.cfi_def_cfa_offset 8
	.cfi_offset 4, -8
	.cfi_offset 14, -4
	str	lr, [sp, #4]
	.loc 8 301 0
	ldrb	r2, [r0]	@ zero_extendqisi2
	cmp	r2, #0
.LBB6303:
.LBB6304:
.LBB6305:
.LBB6306:
.LBB6307:
	.loc 4 44 0
	mvnne	r1, #1040384
.LBE6307:
.LBE6306:
.LBE6305:
.LBE6304:
.LBE6303:
	.loc 8 301 0
	beq	.L304
.LVL275:
.L301:
.LBB6316:
.LBB6314:
.LBB6312:
.LBB6310:
.LBB6308:
	.loc 4 44 0
	ldr	r3, [r1, #-4079]
	tst	r3, #2
	beq	.L301
.LBE6308:
.LBE6310:
.LBE6312:
	.loc 8 22 0
	cmp	r2, #10
.LBB6313:
.LBB6311:
.LBB6309:
	.loc 4 45 0
	str	r2, [r1, #-4063]
.LBE6309:
.LBE6311:
.LBE6313:
	.loc 8 22 0
	beq	.L311
.L302:
.LVL276:
.LBE6314:
.LBE6316:
	.loc 8 301 0 discriminator 2
	ldrb	r2, [r0, #1]!	@ zero_extendqisi2
.LVL277:
	cmp	r2, #0
	bne	.L301
.LVL278:
.L304:
.LBB6317:
.LBB6318:
.LBB6319:
.LBB6320:
.LBB6321:
	.loc 4 44 0
	mvn	r2, #1040384
.L300:
	ldr	r3, [r2, #-4079]
	tst	r3, #2
	beq	.L300
	.loc 4 45 0
	mov	r3, #10
	str	r3, [r2, #-4063]
.LBE6321:
.LBE6320:
.LBE6319:
	bl	putchar.part.64
.LVL279:
.LBE6318:
.LBE6317:
	.loc 8 306 0
	ldr	r4, [sp]
	.cfi_remember_state
	.cfi_restore 4
	add	sp, sp, #4
	.cfi_def_cfa_offset 4
	mov	r0, #0
	ldr	pc, [sp], #4
	.cfi_restore 15
	.cfi_def_cfa_offset 0
.L311:
	.cfi_restore_state
.LBB6322:
.LBB6315:
	bl	putchar.part.64
.LVL280:
	b	.L302
.LBE6315:
.LBE6322:
	.cfi_endproc
.LFE735:
	.size	puts, .-puts
	.align	2
	.global	kprintf
	.syntax unified
	.arm
	.fpu softvfp
	.type	kprintf, %function
kprintf:
.LFB736:
	.loc 8 310 0
	.cfi_startproc
	@ args = 4, pretend = 16, frame = 8
	@ frame_needed = 0, uses_anonymous_args = 1
.LVL281:
	push	{r0, r1, r2, r3}
	.cfi_def_cfa_offset 16
	.cfi_offset 0, -16
	.cfi_offset 1, -12
	.cfi_offset 2, -8
	.cfi_offset 3, -4
	strd	r4, [sp, #-36]!
	.cfi_def_cfa_offset 52
	.cfi_offset 4, -52
	.cfi_offset 5, -48
	.cfi_offset 6, -44
	.cfi_offset 7, -40
	.cfi_offset 8, -36
	.cfi_offset 9, -32
	.cfi_offset 10, -28
	.cfi_offset 11, -24
	.cfi_offset 14, -20
	strd	r6, [sp, #8]
	strd	r8, [sp, #16]
	strd	r10, [sp, #24]
	str	lr, [sp, #32]
	sub	sp, sp, #12
	.cfi_def_cfa_offset 64
	.loc 8 310 0
	ldr	r9, [sp, #48]
	.loc 8 314 0
	add	r3, sp, #52
	str	r3, [sp, #4]
.LVL282:
.LBB6399:
.LBB6400:
	.loc 8 173 0
	cmp	r9, #0
	beq	.L365
.LBB6401:
	.loc 8 224 0
	movw	r6, #:lower16:.LC3
	mov	r8, r3
.LBE6401:
	.loc 8 173 0
	mov	r7, #0
.LBB6404:
	.loc 8 224 0
	movt	r6, #:upper16:.LC3
.LBE6404:
.LBB6405:
.LBB6406:
.LBB6407:
.LBB6408:
.LBB6409:
	.loc 4 44 0
	mvn	r4, #1040384
.LVL283:
.L314:
.LBE6409:
.LBE6408:
.LBE6407:
.LBE6406:
.LBE6405:
	.loc 8 179 0
	ldrb	r2, [r9]	@ zero_extendqisi2
	cmp	r2, #0
	beq	.L360
.LVL284:
.L363:
	.loc 8 281 0
	cmp	r2, #37
	bne	.L358
.LVL285:
	.loc 8 179 0
	ldrb	r2, [r9, #1]	@ zero_extendqisi2
	.loc 8 284 0
	add	r9, r9, #1
.LVL286:
	.loc 8 179 0
	cmp	r2, #0
	beq	.L360
	mov	r5, #0
	b	.L361
.LVL287:
.L316:
	.loc 8 182 0
	add	r5, r5, r5, lsl #2
.LVL288:
	.loc 8 184 0
	cmn	r9, #1
	.loc 8 182 0
	add	r5, r3, r5, lsl #1
.LVL289:
	.loc 8 184 0
	beq	.L315
	ldrb	r2, [r9, #1]!	@ zero_extendqisi2
.LVL290:
.L361:
.LBB6418:
.LBB6419:
	.loc 8 156 0
	sub	r3, r2, #48
.LBE6419:
.LBE6418:
	.loc 8 181 0
	uxtb	r1, r3
	cmp	r1, #9
	bls	.L316
	.loc 8 188 0
	cmp	r2, #112
	beq	.L317
	bhi	.L318
	cmp	r2, #100
	beq	.L319
	cmp	r2, #108
	beq	.L320
	cmp	r2, #37
	beq	.L321
.LVL291:
.L367:
	.loc 8 238 0
	mvn	r0, #0
.LVL292:
.L312:
.LBE6400:
.LBE6399:
	.loc 8 318 0
	add	sp, sp, #12
	.cfi_remember_state
	.cfi_def_cfa_offset 52
	@ sp needed
	ldrd	r4, [sp]
	.cfi_restore 5
	.cfi_restore 4
	ldrd	r6, [sp, #8]
	.cfi_restore 7
	.cfi_restore 6
	ldrd	r8, [sp, #16]
	.cfi_restore 9
	.cfi_restore 8
	ldrd	r10, [sp, #24]
	.cfi_restore 11
	.cfi_restore 10
	ldr	lr, [sp, #32]
	.cfi_restore 14
	add	sp, sp, #36
	.cfi_def_cfa_offset 16
	add	sp, sp, #16
	.cfi_restore 3
	.cfi_restore 2
	.cfi_restore 1
	.cfi_restore 0
	.cfi_def_cfa_offset 0
	bx	lr
.LVL293:
.L358:
	.cfi_restore_state
.LBB6541:
.LBB6540:
.LBB6420:
.LBB6416:
.LBB6414:
.LBB6412:
.LBB6410:
	.loc 4 44 0
	ldr	r3, [r4, #-4079]
	tst	r3, #2
	beq	.L358
.LBE6410:
.LBE6412:
.LBE6414:
	.loc 8 22 0
	cmp	r2, #10
.LBB6415:
.LBB6413:
.LBB6411:
	.loc 4 45 0
	str	r2, [r4, #-4063]
.LBE6411:
.LBE6413:
.LBE6415:
	.loc 8 22 0
	beq	.L418
.L362:
.LBE6416:
.LBE6420:
	.loc 8 179 0
	ldrb	r2, [r9, #1]!	@ zero_extendqisi2
	.loc 8 289 0
	add	r7, r7, #1
.LVL294:
	.loc 8 179 0
	cmp	r2, #0
	bne	.L363
.L360:
	mov	r0, r7
	b	.L312
.LVL295:
.L321:
.LBB6421:
.LBB6422:
.LBB6423:
.LBB6424:
	.loc 4 44 0
	ldr	r3, [r4, #-4079]
	tst	r3, #2
	beq	.L321
	.loc 4 45 0
	mov	r3, #37
.LBE6424:
.LBE6423:
.LBE6422:
.LBE6421:
	.loc 8 191 0
	add	r0, r7, #1
	.loc 8 192 0
	add	r9, r9, #1
.LVL296:
.LBB6428:
.LBB6427:
.LBB6426:
.LBB6425:
	.loc 4 45 0
	str	r3, [r4, #-4063]
.LVL297:
.L325:
.LBE6425:
.LBE6426:
.LBE6427:
.LBE6428:
	.loc 8 277 0
	sub	r1, r5, r0
.LVL298:
	mov	r7, r5
.LBB6429:
.LBB6430:
	.loc 8 30 0
	cmp	r1, #0
	ble	.L314
	mov	r2, #0
.LBB6431:
.LBB6432:
.LBB6433:
.LBB6434:
	.loc 4 45 0
	mov	r0, #32
.LVL299:
.L356:
	.loc 4 44 0
	ldr	r3, [r4, #-4079]
	tst	r3, #2
	beq	.L356
.LBE6434:
.LBE6433:
.LBE6432:
.LBE6431:
	.loc 8 30 0
	add	r2, r2, #1
.LBB6438:
.LBB6437:
.LBB6436:
.LBB6435:
	.loc 4 45 0
	str	r0, [r4, #-4063]
.LVL300:
.LBE6435:
.LBE6436:
.LBE6437:
.LBE6438:
	.loc 8 30 0
	cmp	r1, r2
	bne	.L356
	b	.L314
.LVL301:
.L315:
.LBE6430:
.LBE6429:
	.loc 8 188 0
	mov	r3, #0
	ldrb	r3, [r3]	@ zero_extendqisi2
	.inst	0xe7f000f0
.LVL302:
.L318:
	cmp	r2, #117
	beq	.L322
	cmp	r2, #120
	beq	.L323
	cmp	r2, #115
	bne	.L367
	.loc 8 232 0
	ldr	r0, [r8]
	.loc 8 233 0
	add	r9, r9, #1
.LVL303:
	.loc 8 232 0
	add	r8, r8, #4
.LVL304:
	bl	print_string
.LVL305:
	add	r0, r0, r7
.LVL306:
	b	.L325
.LVL307:
.L323:
	.loc 8 215 0
	ldr	r0, [r8]
	add	r8, r8, #4
.LVL308:
.LBB6439:
.LBB6440:
	.loc 8 90 0
	cmp	r0, #0
	bne	.L419
.L333:
.LBB6441:
.LBB6442:
.LBB6443:
.LBB6444:
	.loc 4 44 0
	ldr	r3, [r4, #-4079]
	tst	r3, #2
	beq	.L333
.LVL309:
.L414:
	.loc 4 45 0
	mov	r3, #48
.LBE6444:
.LBE6443:
.LBE6442:
.LBE6441:
	.loc 8 92 0
	mov	r0, #1
.LBB6448:
.LBB6447:
.LBB6446:
.LBB6445:
	.loc 4 45 0
	str	r3, [r4, #-4063]
.LVL310:
.L413:
.LBE6445:
.LBE6446:
.LBE6447:
.LBE6448:
.LBE6440:
.LBE6439:
.LBB6450:
	.loc 8 225 0
	add	r0, r0, r7
.LVL311:
.L336:
	.loc 8 227 0
	add	r9, r9, #1
.LVL312:
	b	.L325
.LVL313:
.L322:
.LBE6450:
	.loc 8 210 0
	ldr	r0, [r8]
	add	r8, r8, #4
.LVL314:
.LBB6451:
.LBB6452:
	.loc 8 90 0
	cmp	r0, #0
	bne	.L420
.L331:
.LBB6453:
.LBB6454:
.LBB6455:
.LBB6456:
	.loc 4 44 0
	ldr	r3, [r4, #-4079]
	tst	r3, #2
	bne	.L414
	ldr	r3, [r4, #-4079]
	tst	r3, #2
	beq	.L331
	b	.L414
.LVL315:
.L317:
.LBE6456:
.LBE6455:
.LBE6454:
.LBE6453:
.LBE6452:
.LBE6451:
.LBB6458:
	.loc 8 220 0
	ldr	fp, [r8]
	add	r8, r8, #4
.LVL316:
	.loc 8 221 0
	cmp	fp, #0
	bne	.L335
	.loc 8 222 0
	movw	r0, #:lower16:.LC2
	movt	r0, #:upper16:.LC2
	bl	print_string
.LVL317:
	add	r0, r0, r7
.LVL318:
	b	.L336
.LVL319:
.L320:
.LBE6458:
	.loc 8 238 0
	ldrb	r3, [r9, #1]	@ zero_extendqisi2
	sub	r3, r3, #100
	cmp	r3, #20
	ldrls	pc, [pc, r3, asl #2]
	b	.L367
.L338:
	.word	.L337
	.word	.L367
	.word	.L367
	.word	.L367
	.word	.L367
	.word	.L367
	.word	.L367
	.word	.L367
	.word	.L339
	.word	.L367
	.word	.L367
	.word	.L367
	.word	.L367
	.word	.L367
	.word	.L367
	.word	.L367
	.word	.L367
	.word	.L340
	.word	.L367
	.word	.L367
	.word	.L341
.LVL320:
.L319:
.LBB6459:
	.loc 8 196 0
	ldr	r3, [r8]
	add	r8, r8, #4
.LVL321:
	.loc 8 198 0
	cmp	r3, #0
	blt	.L394
.LVL322:
.LBB6460:
.LBB6461:
	.loc 8 90 0
	bne	.L328
.LVL323:
.L395:
.LBB6462:
.LBB6463:
.LBB6464:
.LBB6465:
	.loc 4 44 0
	ldr	r3, [r4, #-4079]
	tst	r3, #2
	beq	.L395
	b	.L414
.LVL324:
.L394:
.LBE6465:
.LBE6464:
.LBE6463:
.LBE6462:
.LBE6461:
.LBE6460:
.LBB6467:
.LBB6468:
.LBB6469:
.LBB6470:
	ldr	r2, [r4, #-4079]
	tst	r2, #2
	beq	.L394
	.loc 4 45 0
	mov	r2, #45
.LBE6470:
.LBE6469:
.LBE6468:
.LBE6467:
	.loc 8 200 0
	add	r7, r7, #1
.LVL325:
	.loc 8 201 0
	rsb	r3, r3, #0
.LBB6474:
.LBB6473:
.LBB6472:
.LBB6471:
	.loc 4 45 0
	str	r2, [r4, #-4063]
.LVL326:
.L328:
.LBE6471:
.LBE6472:
.LBE6473:
.LBE6474:
.LBB6475:
.LBB6466:
	mov	r0, r3
	mov	r1, #10
	bl	print_unsigned_long.part.65
.LVL327:
	b	.L413
.LVL328:
.L335:
.LBE6466:
.LBE6475:
.LBE6459:
.LBB6476:
	.loc 8 224 0
	mov	r0, r6
	bl	print_string
.LVL329:
	mov	r10, r0
.LVL330:
.LBB6402:
.LBB6403:
	mov	r1, #16
	mov	r0, fp
.LVL331:
	bl	print_unsigned_long.part.65
.LVL332:
.LBE6403:
.LBE6402:
	.loc 8 225 0
	add	r0, r10, r0
	b	.L413
.LVL333:
.L418:
.LBE6476:
.LBB6477:
.LBB6417:
	bl	putchar.part.64
.LVL334:
	b	.L362
.LVL335:
.L420:
.LBE6417:
.LBE6477:
.LBB6478:
.LBB6457:
	mov	r1, #10
	bl	print_unsigned_long.part.65
.LVL336:
	b	.L413
.LVL337:
.L419:
.LBE6457:
.LBE6478:
.LBB6479:
.LBB6449:
	mov	r1, #16
	bl	print_unsigned_long.part.65
.LVL338:
	b	.L413
.LVL339:
.L337:
.LBE6449:
.LBE6479:
.LBB6480:
	.loc 8 240 0
	ldr	r3, [r8]
	add	r8, r8, #4
.LVL340:
	.loc 8 242 0
	cmp	r3, #0
	blt	.L396
.LVL341:
.LBB6481:
.LBB6482:
	.loc 8 90 0
	bne	.L344
.LVL342:
.L397:
.LBB6483:
.LBB6484:
.LBB6485:
.LBB6486:
	.loc 4 44 0
	ldr	r3, [r4, #-4079]
	tst	r3, #2
	beq	.L397
.LVL343:
.L415:
.LBE6486:
.LBE6485:
.LBE6484:
.LBE6483:
.LBE6482:
.LBE6481:
.LBE6480:
.LBB6497:
.LBB6498:
.LBB6499:
.LBB6500:
.LBB6501:
.LBB6502:
	.loc 4 45 0
	mov	r3, #48
.LBE6502:
.LBE6501:
.LBE6500:
.LBE6499:
	.loc 8 92 0
	mov	r0, #1
.LBB6509:
.LBB6507:
.LBB6505:
.LBB6503:
	.loc 4 45 0
	str	r3, [r4, #-4063]
.L354:
.LBE6503:
.LBE6505:
.LBE6507:
.LBE6509:
.LBE6498:
.LBE6497:
	.loc 8 263 0
	add	r0, r0, r7
.LVL344:
	.loc 8 264 0
	add	r9, r9, #2
.LVL345:
	b	.L325
.LVL346:
.L396:
.LBB6513:
.LBB6488:
.LBB6489:
.LBB6490:
.LBB6491:
	.loc 4 44 0
	ldr	r2, [r4, #-4079]
	tst	r2, #2
	beq	.L396
	.loc 4 45 0
	mov	r2, #45
.LBE6491:
.LBE6490:
.LBE6489:
.LBE6488:
	.loc 8 244 0
	add	r7, r7, #1
.LVL347:
	.loc 8 245 0
	rsb	r3, r3, #0
.LBB6495:
.LBB6494:
.LBB6493:
.LBB6492:
	.loc 4 45 0
	str	r2, [r4, #-4063]
.LVL348:
.L344:
.LBE6492:
.LBE6493:
.LBE6494:
.LBE6495:
.LBB6496:
.LBB6487:
	mov	r0, r3
	mov	r1, #10
	bl	print_unsigned_long.part.65
.LVL349:
	b	.L354
.LVL350:
.L339:
.LBE6487:
.LBE6496:
.LBE6513:
	.loc 8 253 0
	ldrb	r3, [r9, #2]	@ zero_extendqisi2
	cmp	r3, #120
	beq	.L421
.L347:
	.loc 8 256 0
	add	r9, r9, #3
.LVL351:
	mov	r0, r7
	b	.L325
.LVL352:
.L340:
	.loc 8 259 0
	ldr	r0, [r8]
	add	r8, r8, #4
.LVL353:
.LBB6514:
.LBB6515:
	.loc 8 90 0
	cmp	r0, #0
	bne	.L422
.L351:
.LBB6516:
.LBB6517:
.LBB6518:
.LBB6519:
	.loc 4 44 0
	ldr	r3, [r4, #-4079]
	tst	r3, #2
	beq	.L351
	b	.L415
.LVL354:
.L341:
.LBE6519:
.LBE6518:
.LBE6517:
.LBE6516:
.LBE6515:
.LBE6514:
	.loc 8 263 0
	ldr	r0, [r8]
	add	r8, r8, #4
.LVL355:
.LBB6521:
.LBB6511:
	.loc 8 90 0
	cmp	r0, #0
	bne	.L423
.L353:
.LBB6510:
.LBB6508:
.LBB6506:
.LBB6504:
	.loc 4 44 0
	ldr	r3, [r4, #-4079]
	tst	r3, #2
	beq	.L353
	b	.L415
.LVL356:
.L365:
.LBE6504:
.LBE6506:
.LBE6508:
.LBE6510:
.LBE6511:
.LBE6521:
	.loc 8 173 0
	mov	r0, r9
	b	.L312
.LVL357:
.L423:
.LBB6522:
.LBB6512:
	mov	r1, #16
	bl	print_unsigned_long.part.65
.LVL358:
	b	.L354
.LVL359:
.L422:
.LBE6512:
.LBE6522:
.LBB6523:
.LBB6520:
	mov	r1, #10
	bl	print_unsigned_long.part.65
.LVL360:
	b	.L354
.LVL361:
.L421:
.LBE6520:
.LBE6523:
	.loc 8 254 0
	add	r3, r8, #7
	bic	r3, r3, #7
	add	r8, r3, #8
.LVL362:
	ldr	fp, [r3]
	ldr	r10, [r3, #4]
.LVL363:
.LBB6524:
.LBB6525:
	.loc 8 134 0
	cmp	r10, #0
	bne	.L424
.LVL364:
.L348:
	.loc 8 148 0
	mov	r0, fp
	mov	r1, #16
	bl	print_unsigned_long
.LVL365:
	add	r0, r0, r10
.LBE6525:
.LBE6524:
	.loc 8 254 0
	add	r7, r7, r0
.LVL366:
	b	.L347
.LVL367:
.L424:
.LBB6539:
.LBB6538:
	.loc 8 135 0
	mov	r0, r10
	mov	r1, #16
	bl	print_unsigned_long
.LVL368:
	add	r1, r0, #8
	mov	r10, r0
.LVL369:
	.loc 8 121 0
	mov	r3, #-268435456
.LBB6526:
.LBB6527:
.LBB6528:
.LBB6529:
	.loc 4 45 0
	mov	r2, #48
.LVL370:
.L349:
.LBE6529:
.LBE6528:
.LBE6527:
.LBE6526:
	.loc 8 137 0
	tst	fp, r3
	bne	.L348
.L350:
.LBB6536:
.LBB6534:
.LBB6532:
.LBB6530:
	.loc 4 44 0
	ldr	r0, [r4, #-4079]
	tst	r0, #2
	beq	.L350
.LBE6530:
.LBE6532:
.LBE6534:
.LBE6536:
	.loc 8 139 0
	add	r10, r10, #1
.LVL371:
	.loc 8 140 0
	lsr	r3, r3, #4
.LVL372:
.LBB6537:
.LBB6535:
.LBB6533:
.LBB6531:
	.loc 4 45 0
	str	r2, [r4, #-4063]
.LVL373:
.LBE6531:
.LBE6533:
.LBE6535:
.LBE6537:
	.loc 8 142 0
	cmp	r1, r10
	bne	.L349
	b	.L348
.LBE6538:
.LBE6539:
.LBE6540:
.LBE6541:
	.cfi_endproc
.LFE736:
	.size	kprintf, .-kprintf
	.align	2
	.global	halt
	.syntax unified
	.arm
	.fpu softvfp
	.type	halt, %function
halt:
.LFB383:
	.loc 1 24 0
	.cfi_startproc
	@ Volatile: function does not return.
	@ args = 0, pretend = 0, frame = 0
	@ frame_needed = 0, uses_anonymous_args = 0
	str	r4, [sp, #-8]!
	.cfi_def_cfa_offset 8
	.cfi_offset 4, -8
	.cfi_offset 14, -4
	str	lr, [sp, #4]
	.loc 1 26 0
	.syntax divided
@ 26 "/home/sel4/work/work2/kernel/src/arch/arm/32/idle.c" 1
	cpsid iaf
@ 0 "" 2
	.loc 1 29 0
	.arm
	.syntax unified
	movw	r0, #:lower16:.LC4
.LBB6547:
.LBB6548:
	.file 29 "/home/sel4/work/work2/kernel/include/api/debug.h"
	.loc 29 29 0
	movw	r4, #:lower16:ksKernelEntry
.LBE6548:
.LBE6547:
	.loc 1 29 0
	movt	r0, #:upper16:.LC4
.LBB6552:
.LBB6549:
	.loc 29 29 0
	movt	r4, #:upper16:ksKernelEntry
.LBE6549:
.LBE6552:
	.loc 1 29 0
	bl	kprintf
.LVL374:
.LBB6553:
.LBB6550:
	.loc 29 28 0
	movw	r0, #:lower16:.LC5
	movt	r0, #:upper16:.LC5
	bl	kprintf
.LVL375:
	.loc 29 29 0
	ldrb	r3, [r4]	@ zero_extendqisi2
	and	r3, r3, #7
	cmp	r3, #7
	ldrls	pc, [pc, r3, asl #2]
	b	.L426
.L428:
	.word	.L427
	.word	.L429
	.word	.L430
	.word	.L426
	.word	.L431
	.word	.L432
	.word	.L426
	.word	.L433
.L426:
	.loc 29 68 0
	movw	r0, #:lower16:.LC13
	movt	r0, #:upper16:.LC13
	bl	kprintf
.LVL376:
.L435:
.LBE6550:
.LBE6553:
.LBB6554:
.LBB6555:
.LBB6556:
	.loc 2 16 0
	.syntax divided
@ 16 "/home/sel4/work/work2/kernel/include/arch/arm/armv/armv7-a/armv/machine.h" 1
	wfi
@ 0 "" 2
	.arm
	.syntax unified
	b	.L435
.L433:
.LBE6556:
.LBE6555:
.LBE6554:
.LBB6557:
.LBB6551:
	.loc 29 59 0
	movw	r0, #:lower16:.LC12
	movt	r0, #:upper16:.LC12
	bl	kprintf
.LVL377:
	b	.L435
.L432:
	.loc 29 48 0
	ldrb	r1, [r4, #1]	@ zero_extendqisi2
	movw	r3, #:lower16:.LANCHOR3
	movw	r0, #:lower16:.LC10
	movt	r3, #:upper16:.LANCHOR3
	movt	r0, #:upper16:.LC10
	and	r1, r1, #15
	ldr	r2, [r3, r1, lsl #2]
	bl	kprintf
.LVL378:
	.loc 29 50 0
	ldrb	ip, [r4, #1]	@ zero_extendqisi2
	and	r3, ip, #15
	sub	r2, r3, #3
	.loc 29 49 0
	cmp	r3, #1
	cmpne	r2, #1
	bhi	.L435
	.loc 29 53 0
	ldrb	r3, [r4, #3]	@ zero_extendqisi2
	movw	r0, #:lower16:.LC11
	ldrb	lr, [r4, #2]	@ zero_extendqisi2
	movt	r0, #:upper16:.LC11
	ldrb	r2, [r4, #4]	@ zero_extendqisi2
	lsl	r3, r3, #6
	and	r1, lr, #1
	orr	r3, r3, lr, lsr #2
	lsl	r1, r1, #4
	and	r2, r2, #31
	orr	r1, r1, ip, lsr #4
	orr	r2, r3, r2, lsl #14
	bl	kprintf
.LVL379:
	b	.L435
.L431:
	.loc 29 37 0
	ldrb	r3, [r4, #1]	@ zero_extendqisi2
	movw	r0, #:lower16:.LC8
	ldrb	ip, [r4, #2]	@ zero_extendqisi2
	movt	r0, #:upper16:.LC8
.L440:
	.loc 29 34 0
	ldrb	r2, [r4, #3]	@ zero_extendqisi2
	orr	r3, r3, ip, lsl #8
	ldrb	r1, [r4, #4]	@ zero_extendqisi2
	orr	r3, r3, r2, lsl #16
	and	r1, r1, #31
	orr	r1, r3, r1, lsl #24
	bl	kprintf
.LVL380:
	b	.L435
.L429:
	movw	r0, #:lower16:.LC7
	ldrb	r3, [r4, #1]	@ zero_extendqisi2
	ldrb	ip, [r4, #2]	@ zero_extendqisi2
	movt	r0, #:upper16:.LC7
	b	.L440
.L427:
	.loc 29 31 0
	movw	r0, #:lower16:.LC6
	ldrb	r3, [r4, #1]	@ zero_extendqisi2
	ldrb	ip, [r4, #2]	@ zero_extendqisi2
	movt	r0, #:upper16:.LC6
	b	.L440
.L430:
	.loc 29 40 0
	movw	r0, #:lower16:.LC9
	ldrb	r3, [r4, #1]	@ zero_extendqisi2
	ldrb	ip, [r4, #2]	@ zero_extendqisi2
	movt	r0, #:upper16:.LC9
	b	.L440
.LBE6551:
.LBE6557:
	.cfi_endproc
.LFE383:
	.size	halt, .-halt
	.align	2
	.global	maskVMRights
	.syntax unified
	.arm
	.fpu softvfp
	.type	maskVMRights, %function
maskVMRights:
.LFB402:
	.loc 11 138 0
	.cfi_startproc
	@ args = 0, pretend = 0, frame = 0
	@ frame_needed = 0, uses_anonymous_args = 0
.LVL381:
	.loc 11 139 0
	cmp	r0, #0
.LVL382:
	bxeq	lr
	.loc 11 142 0
	cmp	r0, #2
	beq	.L454
	.loc 11 146 0
	cmp	r0, #3
	beq	.L455
.L449:
	.loc 11 159 0
	mov	r0, #1
.LVL383:
	bx	lr
.LVL384:
.L454:
	.loc 11 142 0 discriminator 1
	tst	r1, #2
	.loc 11 144 0 discriminator 1
	moveq	r0, #1
.LVL385:
	movne	r0, #2
	bx	lr
.LVL386:
.L455:
.LBB6583:
.LBB6584:
	.file 30 "32/mode/api/shared_types_gen.h"
	.loc 30 166 0 discriminator 1
	ubfx	r3, r1, #1, #1
.LBE6584:
.LBE6583:
	.loc 11 146 0 discriminator 1
	cmp	r3, #0
	beq	.L444
.LVL387:
	.loc 11 148 0
	tst	r1, #1
	.loc 11 151 0
	moveq	r0, #2
.LVL388:
	movne	r0, #3
	bx	lr
.LVL389:
.L444:
	.loc 11 155 0 discriminator 1
	tst	r1, #1
	beq	.L449
.LVL390:
.LBB6585:
.LBB6586:
	.loc 11 157 0
	movw	ip, #:lower16:ksCurThread
.LBE6586:
.LBE6585:
	.loc 11 138 0
	str	r4, [sp, #-8]!
	.cfi_def_cfa_offset 8
	.cfi_offset 4, -8
	.cfi_offset 14, -4
.LBB6589:
.LBB6587:
	.loc 11 157 0
	movw	r0, #:lower16:.LC14
.LVL391:
	movt	ip, #:upper16:ksCurThread
	mov	r1, r3
.LVL392:
	ldr	r2, .L456
	ldr	ip, [ip]
.LBE6587:
.LBE6589:
	.loc 11 138 0
	str	lr, [sp, #4]
	sub	sp, sp, #16
	.cfi_def_cfa_offset 24
.LBB6590:
.LBB6588:
	.loc 11 157 0
	mov	r3, #157
	movt	r0, #:upper16:.LC14
	ldr	lr, [ip, #68]
	add	r4, ip, #528
	str	ip, [sp]
	stmib	sp, {r4, lr}
	bl	kprintf
.LVL393:
	movw	r0, #:lower16:.LC15
	movt	r0, #:upper16:.LC15
	bl	kprintf
.LVL394:
	movw	r0, #:lower16:.LC16
	movt	r0, #:upper16:.LC16
	bl	kprintf
.LVL395:
	mov	r0, #1
.LBE6588:
.LBE6590:
	.loc 11 160 0
	add	sp, sp, #16
	.cfi_def_cfa_offset 8
	@ sp needed
	ldr	r4, [sp]
	.cfi_restore 4
	add	sp, sp, #4
	.cfi_def_cfa_offset 4
	ldr	pc, [sp], #4
	.cfi_restore 15
	.cfi_def_cfa_offset 0
.L457:
	.align	2
.L456:
	.word	.LANCHOR3+36
	.cfi_endproc
.LFE402:
	.size	maskVMRights, .-maskVMRights
	.align	2
	.global	kernelPrefetchAbort
	.syntax unified
	.arm
	.fpu softvfp
	.type	kernelPrefetchAbort, %function
kernelPrefetchAbort:
.LFB467:
	.loc 11 3066 0
	.cfi_startproc
	@ args = 0, pretend = 0, frame = 0
	@ frame_needed = 0, uses_anonymous_args = 0
.LVL396:
	strd	r4, [sp, #-16]!
	.cfi_def_cfa_offset 16
	.cfi_offset 4, -16
	.cfi_offset 5, -12
	.cfi_offset 6, -8
	.cfi_offset 14, -4
	mov	r5, r0
	str	r6, [sp, #8]
	str	lr, [sp, #12]
.LBB6591:
.LBB6592:
	.loc 18 100 0
	.syntax divided
@ 100 "/home/sel4/work/work2/kernel/include/arch/arm/arch/32/mode/machine_pl2.h" 1
	mrc p15, 4, r4, c5, c2, 0
@ 0 "" 2
	.arm
	.syntax unified
.LBE6592:
.LBE6591:
	.loc 11 3069 0
	movw	r0, #:lower16:.LC17
.LVL397:
	movt	r0, #:upper16:.LC17
	bl	kprintf
.LVL398:
	.loc 11 3070 0
	movw	r0, #:lower16:.LC18
	mov	r1, r5
	movt	r0, #:upper16:.LC18
	bl	kprintf
.LVL399:
	.loc 11 3071 0
	movw	r0, #:lower16:.LC19
	mov	r1, r4
	movt	r0, #:upper16:.LC19
	bl	kprintf
.LVL400:
	.loc 11 3073 0
	bl	halt
.LVL401:
	.cfi_endproc
.LFE467:
	.size	kernelPrefetchAbort, .-kernelPrefetchAbort
	.align	2
	.global	kernelDataAbort
	.syntax unified
	.arm
	.fpu softvfp
	.type	kernelDataAbort, %function
kernelDataAbort:
.LFB468:
	.loc 11 3078 0
	.cfi_startproc
	@ args = 0, pretend = 0, frame = 0
	@ frame_needed = 0, uses_anonymous_args = 0
.LVL402:
	strd	r4, [sp, #-16]!
	.cfi_def_cfa_offset 16
	.cfi_offset 4, -16
	.cfi_offset 5, -12
	.cfi_offset 6, -8
	.cfi_offset 14, -4
	str	r6, [sp, #8]
	mov	r6, r0
	str	lr, [sp, #12]
.LBB6593:
.LBB6594:
	.loc 18 107 0
	.syntax divided
@ 107 "/home/sel4/work/work2/kernel/include/arch/arm/arch/32/mode/machine_pl2.h" 1
	mrc p15, 4, r4, c6, c0, 0
@ 0 "" 2
	.arm
	.syntax unified
.LBE6594:
.LBE6593:
.LBB6595:
.LBB6596:
	.loc 18 100 0
	.syntax divided
@ 100 "/home/sel4/work/work2/kernel/include/arch/arm/arch/32/mode/machine_pl2.h" 1
	mrc p15, 4, r5, c5, c2, 0
@ 0 "" 2
	.arm
	.syntax unified
.LBE6596:
.LBE6595:
	.loc 11 3082 0
	movw	r0, #:lower16:.LC20
.LVL403:
	movt	r0, #:upper16:.LC20
	bl	kprintf
.LVL404:
	.loc 11 3083 0
	movw	r0, #:lower16:.LC18
	mov	r1, r6
	movt	r0, #:upper16:.LC18
	bl	kprintf
.LVL405:
	.loc 11 3084 0
	movw	r0, #:lower16:.LC21
	mov	r2, r5
	mov	r1, r4
	movt	r0, #:upper16:.LC21
	bl	kprintf
.LVL406:
	.loc 11 3086 0
	bl	halt
.LVL407:
	.cfi_endproc
.LFE468:
	.size	kernelDataAbort, .-kernelDataAbort
	.align	2
	.global	kernelUndefinedInstruction
	.syntax unified
	.arm
	.fpu softvfp
	.type	kernelUndefinedInstruction, %function
kernelUndefinedInstruction:
.LFB469:
	.loc 11 3091 0
	.cfi_startproc
	@ args = 0, pretend = 0, frame = 0
	@ frame_needed = 0, uses_anonymous_args = 0
.LVL408:
	strd	r4, [sp, #-16]!
	.cfi_def_cfa_offset 16
	.cfi_offset 4, -16
	.cfi_offset 5, -12
	.cfi_offset 6, -8
	.cfi_offset 14, -4
	mov	r5, r0
	str	r6, [sp, #8]
	str	lr, [sp, #12]
.LBB6597:
.LBB6598:
	.loc 18 100 0
	.syntax divided
@ 100 "/home/sel4/work/work2/kernel/include/arch/arm/arch/32/mode/machine_pl2.h" 1
	mrc p15, 4, r4, c5, c2, 0
@ 0 "" 2
	.arm
	.syntax unified
.LBE6598:
.LBE6597:
	.loc 11 3094 0
	movw	r0, #:lower16:.LC22
.LVL409:
	movt	r0, #:upper16:.LC22
	bl	kprintf
.LVL410:
	.loc 11 3095 0
	movw	r0, #:lower16:.LC18
	mov	r1, r5
	movt	r0, #:upper16:.LC18
	bl	kprintf
.LVL411:
	.loc 11 3096 0
	movw	r0, #:lower16:.LC19
	mov	r1, r4
	movt	r0, #:upper16:.LC19
	bl	kprintf
.LVL412:
	.loc 11 3098 0
	bl	halt
.LVL413:
	.cfi_endproc
.LFE469:
	.size	kernelUndefinedInstruction, .-kernelUndefinedInstruction
	.section	.boot.text
	.align	2
	.global	fpsimd_init
	.syntax unified
	.arm
	.fpu softvfp
	.type	fpsimd_init, %function
fpsimd_init:
.LFB488:
	.file 31 "/home/sel4/work/work2/kernel/src/arch/arm/32/machine/fpu.c"
	.loc 31 65 0
	.cfi_startproc
	@ args = 0, pretend = 0, frame = 0
	@ frame_needed = 0, uses_anonymous_args = 0
	.loc 31 68 0
	.syntax divided
@ 68 "/home/sel4/work/work2/kernel/src/arch/arm/32/machine/fpu.c" 1
	mrc   p15, 0,  r3,  c1,  c0, 2
@ 0 "" 2
.LVL414:
	.loc 31 69 0
	.arm
	.syntax unified
	orr	r3, r3, #15728640
.LVL415:
.LBB6599:
	.loc 31 71 0
	.syntax divided
@ 71 "/home/sel4/work/work2/kernel/src/arch/arm/32/machine/fpu.c" 1
	mcr   p15, 0,  r3,  c1,  c0, 2
@ 0 "" 2
	.arm
	.syntax unified
.LBE6599:
.LBB6600:
.LBB6601:
	.loc 2 31 0
	.syntax divided
@ 31 "/home/sel4/work/work2/kernel/include/arch/arm/armv/armv7-a/armv/machine.h" 1
	isb
@ 0 "" 2
	.arm
	.syntax unified
.LBE6601:
.LBE6600:
.LBB6602:
.LBB6603:
	.loc 31 34 0
	.syntax divided
@ 34 "/home/sel4/work/work2/kernel/src/arch/arm/32/machine/fpu.c" 1
	mrc   p10, 7,  r3, cr8, cr0, 0
@ 0 "" 2
.LVL416:
	.loc 31 35 0
	.arm
	.syntax unified
	orr	r3, r3, #-2147483648
.LVL417:
.LBB6604:
	.loc 31 36 0
	.syntax divided
@ 36 "/home/sel4/work/work2/kernel/src/arch/arm/32/machine/fpu.c" 1
	mcr   p10, 7,  r3, cr8, cr0, 0
@ 0 "" 2
	.arm
	.syntax unified
.LBE6604:
	.loc 31 39 0
	.syntax divided
@ 39 "/home/sel4/work/work2/kernel/src/arch/arm/32/machine/fpu.c" 1
	mrc   p10, 7,  r3, cr8, cr0, 0
@ 0 "" 2
.LVL418:
	.arm
	.syntax unified
.LBE6603:
.LBE6602:
	.loc 31 75 0
	cmp	r3, #0
	blt	.L471
.LBB6605:
.LBB6606:
	.loc 31 54 0
	.syntax divided
@ 54 "/home/sel4/work/work2/kernel/src/arch/arm/32/machine/fpu.c" 1
	.word 0xeef73a10 
mov r2, r3       

@ 0 "" 2
	.loc 31 59 0
	.arm
	.syntax unified
	and	r2, r2, #15
.LBE6606:
.LBE6605:
	.loc 31 81 0
	movw	r3, #:lower16:isFPUD32SupportedCached
.LBB6609:
.LBB6607:
	.loc 31 59 0
	sub	r2, r2, #2
.LBE6607:
.LBE6609:
	.loc 31 81 0
	movt	r3, #:upper16:isFPUD32SupportedCached
.LBB6610:
.LBB6608:
	.loc 31 59 0
	clz	r2, r2
	lsr	r2, r2, #5
.LBE6608:
.LBE6610:
	.loc 31 81 0
	str	r2, [r3]
.LBB6611:
.LBB6612:
	.file 32 "/home/sel4/work/work2/kernel/include/arch/arm/arch/32/mode/machine/fpu.h"
	.loc 32 144 0
	.syntax divided
@ 144 "/home/sel4/work/work2/kernel/include/arch/arm/arch/32/mode/machine/fpu.h" 1
	mrc   p10, 7,  r3, cr8, cr0, 0
@ 0 "" 2
.LVL419:
	.loc 32 145 0
	.arm
	.syntax unified
	bic	r3, r3, #1073741824
.LVL420:
.LBB6613:
	.loc 32 146 0
	.syntax divided
@ 146 "/home/sel4/work/work2/kernel/include/arch/arm/arch/32/mode/machine/fpu.h" 1
	mcr   p10, 7,  r3, cr8, cr0, 0
@ 0 "" 2
	.arm
	.syntax unified
.LBE6613:
	.loc 32 148 0
	movw	r3, #:lower16:isFPUEnabledCached
.LVL421:
	mov	r2, #0
	movt	r3, #:upper16:isFPUEnabledCached
.LBE6612:
.LBE6611:
	.loc 31 85 0
	mov	r0, #1
.LBB6615:
.LBB6614:
	.loc 32 148 0
	str	r2, [r3]
.LBE6614:
.LBE6615:
	.loc 31 85 0
	bx	lr
.L471:
	.loc 31 77 0
	movw	r0, #:lower16:.LC23
	.loc 31 65 0
	str	r4, [sp, #-8]!
	.cfi_def_cfa_offset 8
	.cfi_offset 4, -8
	.cfi_offset 14, -4
	.loc 31 77 0
	movt	r0, #:upper16:.LC23
	.loc 31 65 0
	str	lr, [sp, #4]
	.loc 31 77 0
	bl	kprintf
.LVL422:
	.loc 31 86 0
	ldr	r4, [sp]
	.cfi_restore 4
	add	sp, sp, #4
	.cfi_def_cfa_offset 4
	.loc 31 78 0
	mov	r0, #0
	.loc 31 86 0
	ldr	pc, [sp], #4
	.cfi_restore 15
	.cfi_def_cfa_offset 0
	.cfi_endproc
.LFE488:
	.size	fpsimd_init, .-fpsimd_init
	.align	2
	.global	fpsimd_HWCapTest
	.syntax unified
	.arm
	.fpu softvfp
	.type	fpsimd_HWCapTest, %function
fpsimd_HWCapTest:
.LFB489:
	.loc 31 91 0
	.cfi_startproc
	@ args = 0, pretend = 0, frame = 0
	@ frame_needed = 0, uses_anonymous_args = 0
	str	r4, [sp, #-8]!
	.cfi_def_cfa_offset 8
	.cfi_offset 4, -8
	.cfi_offset 14, -4
	str	lr, [sp, #4]
	.loc 31 95 0
	.syntax divided
@ 95 "/home/sel4/work/work2/kernel/src/arch/arm/32/machine/fpu.c" 1
	mrc   p15, 0,  r3,  c1,  c0, 2
@ 0 "" 2
.LVL423:
	.loc 31 96 0
	.arm
	.syntax unified
	orr	r3, r3, #15728640
.LVL424:
.LBB6616:
	.loc 31 98 0
	.syntax divided
@ 98 "/home/sel4/work/work2/kernel/src/arch/arm/32/machine/fpu.c" 1
	mcr   p15, 0,  r3,  c1,  c0, 2
@ 0 "" 2
	.arm
	.syntax unified
.LBE6616:
.LBB6617:
.LBB6618:
	.loc 2 31 0
	.syntax divided
@ 31 "/home/sel4/work/work2/kernel/include/arch/arm/armv/armv7-a/armv/machine.h" 1
	isb
@ 0 "" 2
	.arm
	.syntax unified
.LBE6618:
.LBE6617:
	.loc 31 103 0
	.syntax divided
@ 103 "/home/sel4/work/work2/kernel/src/arch/arm/32/machine/fpu.c" 1
	.word 0xeef00a10  
mov r3, r0        

@ 0 "" 2
.LVL425:
	.loc 31 107 0
	.arm
	.syntax unified
	ands	r4, r3, #8388608
	.loc 31 108 0
	movne	r0, #0
	.loc 31 107 0
	bne	.L472
.LBB6619:
.LBB6620:
	.loc 31 34 0
	.syntax divided
@ 34 "/home/sel4/work/work2/kernel/src/arch/arm/32/machine/fpu.c" 1
	mrc   p10, 7,  r2, cr8, cr0, 0
@ 0 "" 2
.LVL426:
	.loc 31 35 0
	.arm
	.syntax unified
	orr	r2, r2, #-2147483648
.LVL427:
.LBB6621:
	.loc 31 36 0
	.syntax divided
@ 36 "/home/sel4/work/work2/kernel/src/arch/arm/32/machine/fpu.c" 1
	mcr   p10, 7,  r2, cr8, cr0, 0
@ 0 "" 2
	.arm
	.syntax unified
.LBE6621:
	.loc 31 39 0
	.syntax divided
@ 39 "/home/sel4/work/work2/kernel/src/arch/arm/32/machine/fpu.c" 1
	mrc   p10, 7,  r2, cr8, cr0, 0
@ 0 "" 2
.LVL428:
	.arm
	.syntax unified
.LBE6620:
.LBE6619:
	.loc 31 114 0
	cmp	r2, #0
	blt	.L480
.LVL429:
	.loc 31 120 0
	ubfx	r3, r3, #16, #7
.LVL430:
	.loc 31 122 0
	sub	r3, r3, #2
	cmp	r3, #2
	.loc 31 136 0
	movls	r0, #1
	.loc 31 122 0
	bhi	.L481
.L472:
	.loc 31 137 0
	ldr	r4, [sp]
	.cfi_remember_state
	.cfi_restore 4
	add	sp, sp, #4
	.cfi_def_cfa_offset 4
	ldr	pc, [sp], #4
	.cfi_restore 15
	.cfi_def_cfa_offset 0
.L481:
	.cfi_restore_state
	.loc 31 129 0
	movw	r0, #:lower16:.LC24
	movt	r0, #:upper16:.LC24
	bl	kprintf
.LVL431:
	.loc 31 130 0
	mov	r0, r4
	.loc 31 137 0
	ldr	r4, [sp]
	.cfi_remember_state
	.cfi_restore 4
	add	sp, sp, #4
	.cfi_def_cfa_offset 4
	ldr	pc, [sp], #4
	.cfi_restore 15
	.cfi_def_cfa_offset 0
.LVL432:
.L480:
	.cfi_restore_state
	.loc 31 116 0
	movw	r0, #:lower16:.LC23
	movt	r0, #:upper16:.LC23
	bl	kprintf
.LVL433:
	.loc 31 117 0
	mov	r0, r4
	b	.L472
	.cfi_endproc
.LFE489:
	.size	fpsimd_HWCapTest, .-fpsimd_HWCapTest
	.text
	.align	2
	.global	_fail
	.syntax unified
	.arm
	.fpu softvfp
	.type	_fail, %function
_fail:
.LFB651:
	.file 33 "/home/sel4/work/work2/kernel/src/assert.c"
	.loc 33 21 0
	.cfi_startproc
	@ Volatile: function does not return.
	@ args = 0, pretend = 0, frame = 0
	@ frame_needed = 0, uses_anonymous_args = 0
.LVL434:
	str	lr, [sp, #-4]!
	.cfi_def_cfa_offset 4
	.cfi_offset 14, -4
	sub	sp, sp, #12
	.cfi_def_cfa_offset 16
	.loc 33 22 0
	str	r0, [sp]
	movw	r0, #:lower16:.LC25
.LVL435:
	movt	r0, #:upper16:.LC25
	bl	kprintf
.LVL436:
	.loc 33 29 0
	bl	halt
.LVL437:
	.cfi_endproc
.LFE651:
	.size	_fail, .-_fail
	.align	2
	.syntax unified
	.arm
	.fpu softvfp
	.type	HAPFromVMRights.part.68, %function
HAPFromVMRights.part.68:
.LFB943:
	.loc 11 115 0
	.cfi_startproc
	@ Volatile: function does not return.
	@ args = 0, pretend = 0, frame = 0
	@ frame_needed = 0, uses_anonymous_args = 0
.LVL438:
	.loc 11 130 0
	movw	r1, #:lower16:.LC26
	movw	r0, #:lower16:.LC27
	.loc 11 115 0
	str	r4, [sp, #-8]!
	.cfi_def_cfa_offset 8
	.cfi_offset 4, -8
	.cfi_offset 14, -4
	.loc 11 130 0
	ldr	r3, .L486
	movt	r1, #:upper16:.LC26
	movt	r0, #:upper16:.LC27
	mov	r2, #130
	.loc 11 115 0
	str	lr, [sp, #4]
	.loc 11 130 0
	bl	_fail
.LVL439:
.L487:
	.align	2
.L486:
	.word	.LANCHOR3+52
	.cfi_endproc
.LFE943:
	.size	HAPFromVMRights.part.68, .-HAPFromVMRights.part.68
	.align	2
	.global	Arch_getObjectSize
	.syntax unified
	.arm
	.fpu softvfp
	.type	Arch_getObjectSize, %function
Arch_getObjectSize:
.LFB504:
	.loc 13 359 0
	.cfi_startproc
	@ args = 0, pretend = 0, frame = 0
	@ frame_needed = 0, uses_anonymous_args = 0
.LVL440:
	.loc 13 360 0
	sub	r0, r0, #5
.LVL441:
	cmp	r0, #6
	ldrls	pc, [pc, r0, asl #2]
	b	.L489
.L491:
	.word	.L490
	.word	.L492
	.word	.L496
	.word	.L494
	.word	.L490
	.word	.L495
	.word	.L490
.L496:
	.loc 13 366 0
	mov	r0, #21
.LVL442:
	.loc 13 385 0
	bx	lr
.L492:
	.loc 13 364 0
	mov	r0, #16
	.loc 13 385 0
	bx	lr
.L494:
	.loc 13 368 0
	mov	r0, #25
	.loc 13 385 0
	bx	lr
.L495:
	.loc 13 372 0
	mov	r0, #14
	.loc 13 385 0
	bx	lr
.L490:
	.loc 13 362 0
	mov	r0, #12
	.loc 13 385 0
	bx	lr
.L489:
.LVL443:
.LBB6624:
.LBB6625:
	.loc 13 382 0
	movw	r1, #:lower16:.LC28
	movw	r0, #:lower16:.LC29
.LBE6625:
.LBE6624:
	.loc 13 359 0
	str	r4, [sp, #-8]!
.LBB6628:
.LBB6626:
	.loc 13 382 0
	ldr	r3, .L499
	movt	r1, #:upper16:.LC28
	movt	r0, #:upper16:.LC29
	movw	r2, #382
.LBE6626:
.LBE6628:
	.loc 13 359 0
	str	lr, [sp, #4]
.LBB6629:
.LBB6627:
	.loc 13 382 0
	bl	_fail
.LVL444:
.L500:
	.align	2
.L499:
	.word	.LANCHOR3+68
.LBE6627:
.LBE6629:
	.cfi_endproc
.LFE504:
	.size	Arch_getObjectSize, .-Arch_getObjectSize
	.section	.text.unlikely,"ax",%progbits
	.align	2
	.syntax unified
	.arm
	.fpu softvfp
	.type	Arch_handleFaultReply.part.70, %function
Arch_handleFaultReply.part.70:
.LFB945:
	.file 34 "/home/sel4/work/work2/kernel/src/arch/arm/api/faults.c"
	.loc 34 21 0
	.cfi_startproc
	@ Volatile: function does not return.
	@ args = 0, pretend = 0, frame = 0
	@ frame_needed = 0, uses_anonymous_args = 0
.LVL445:
	.loc 34 34 0
	movw	r1, #:lower16:.LC30
	movw	r0, #:lower16:.LC31
	ldr	r3, .L503
	.loc 34 21 0
	push	{r4, lr}
	.cfi_def_cfa_offset 8
	.cfi_offset 4, -8
	.cfi_offset 14, -4
	.loc 34 34 0
	movt	r1, #:upper16:.LC30
	movt	r0, #:upper16:.LC31
	mov	r2, #34
	bl	_fail
.LVL446:
.L504:
	.align	2
.L503:
	.word	.LANCHOR3+88
	.cfi_endproc
.LFE945:
	.size	Arch_handleFaultReply.part.70, .-Arch_handleFaultReply.part.70
	.text
	.align	2
	.global	Arch_handleFaultReply
	.syntax unified
	.arm
	.fpu softvfp
	.type	Arch_handleFaultReply, %function
Arch_handleFaultReply:
.LFB508:
	.loc 34 22 0
	.cfi_startproc
	@ args = 0, pretend = 0, frame = 0
	@ frame_needed = 0, uses_anonymous_args = 0
.LVL447:
	.loc 34 23 0
	sub	r2, r2, #5
.LVL448:
	cmp	r2, #2
	bhi	.L512
	.loc 34 36 0
	mov	r0, #1
.LVL449:
	bx	lr
.LVL450:
.L512:
	.loc 34 22 0
	str	r4, [sp, #-8]!
	.cfi_def_cfa_offset 8
	.cfi_offset 4, -8
	.cfi_offset 14, -4
	str	lr, [sp, #4]
	bl	Arch_handleFaultReply.part.70
.LVL451:
	.cfi_endproc
.LFE508:
	.size	Arch_handleFaultReply, .-Arch_handleFaultReply
	.align	2
	.syntax unified
	.arm
	.fpu softvfp
	.type	writeVCPUReg, %function
writeVCPUReg:
.LFB632:
	.loc 25 646 0
	.cfi_startproc
	@ args = 0, pretend = 0, frame = 0
	@ frame_needed = 0, uses_anonymous_args = 0
.LVL452:
	.loc 25 647 0
	movw	r3, #:lower16:armHSCurVCPU
	.loc 25 646 0
	str	r4, [sp, #-8]!
	.cfi_def_cfa_offset 8
	.cfi_offset 4, -8
	.cfi_offset 14, -4
	.loc 25 647 0
	movt	r3, #:upper16:armHSCurVCPU
	ldr	r3, [r3]
	.loc 25 646 0
	str	lr, [sp, #4]
	.loc 25 647 0
	cmp	r3, r0
	bne	.L514
	.loc 25 648 0
	cmp	r1, #15
	ldrls	pc, [pc, r1, asl #2]
	b	.L515
.L517:
	.word	.L516
	.word	.L518
	.word	.L519
	.word	.L520
	.word	.L521
	.word	.L522
	.word	.L523
	.word	.L524
	.word	.L525
	.word	.L526
	.word	.L527
	.word	.L528
	.word	.L529
	.word	.L530
	.word	.L531
	.word	.L532
.L532:
.LVL453:
.LBB6630:
.LBB6631:
	.loc 25 324 0
	.syntax divided
@ 324 "/home/sel4/work/work2/kernel/src/arch/arm/object/vcpu.c" 1
	msr r12_fiq, r2
@ 0 "" 2
.LVL454:
	.arm
	.syntax unified
.L513:
.LBE6631:
.LBE6630:
	.loc 25 758 0
	ldr	r4, [sp]
	.cfi_remember_state
	.cfi_restore 4
	add	sp, sp, #4
	.cfi_def_cfa_offset 4
	ldr	pc, [sp], #4
	.cfi_restore 15
	.cfi_def_cfa_offset 0
.L516:
	.cfi_restore_state
	.loc 25 650 0
	movw	r3, #:lower16:armHSVCPUActive
	movt	r3, #:upper16:armHSVCPUActive
	ldr	r3, [r3]
	cmp	r3, #0
	beq	.L536
.LVL455:
.LBB6632:
.LBB6633:
	.loc 18 134 0
	.syntax divided
@ 134 "/home/sel4/work/work2/kernel/include/arch/arm/arch/32/mode/machine_pl2.h" 1
	mcr p15, 0, r2, c1, c0, 0
@ 0 "" 2
	.arm
	.syntax unified
	b	.L513
.LVL456:
.L518:
.LBE6633:
.LBE6632:
.LBB6634:
.LBB6635:
	.loc 25 128 0
	.syntax divided
@ 128 "/home/sel4/work/work2/kernel/src/arch/arm/object/vcpu.c" 1
	msr lr_svc, r2
@ 0 "" 2
	.arm
	.syntax unified
	b	.L513
.LVL457:
.L519:
.LBE6635:
.LBE6634:
.LBB6636:
.LBB6637:
	.loc 25 142 0
	.syntax divided
@ 142 "/home/sel4/work/work2/kernel/src/arch/arm/object/vcpu.c" 1
	msr sp_svc, r2
@ 0 "" 2
	.arm
	.syntax unified
	b	.L513
.LVL458:
.L520:
.LBE6637:
.LBE6636:
.LBB6638:
.LBB6639:
	.loc 25 156 0
	.syntax divided
@ 156 "/home/sel4/work/work2/kernel/src/arch/arm/object/vcpu.c" 1
	msr lr_abt, r2
@ 0 "" 2
	.arm
	.syntax unified
	b	.L513
.LVL459:
.L521:
.LBE6639:
.LBE6638:
.LBB6640:
.LBB6641:
	.loc 25 170 0
	.syntax divided
@ 170 "/home/sel4/work/work2/kernel/src/arch/arm/object/vcpu.c" 1
	msr sp_abt, r2
@ 0 "" 2
	.arm
	.syntax unified
	b	.L513
.LVL460:
.L522:
.LBE6641:
.LBE6640:
.LBB6642:
.LBB6643:
	.loc 25 184 0
	.syntax divided
@ 184 "/home/sel4/work/work2/kernel/src/arch/arm/object/vcpu.c" 1
	msr lr_und, r2
@ 0 "" 2
	.arm
	.syntax unified
	b	.L513
.LVL461:
.L523:
.LBE6643:
.LBE6642:
.LBB6644:
.LBB6645:
	.loc 25 198 0
	.syntax divided
@ 198 "/home/sel4/work/work2/kernel/src/arch/arm/object/vcpu.c" 1
	msr sp_und, r2
@ 0 "" 2
	.arm
	.syntax unified
	b	.L513
.LVL462:
.L524:
.LBE6645:
.LBE6644:
.LBB6646:
.LBB6647:
	.loc 25 212 0
	.syntax divided
@ 212 "/home/sel4/work/work2/kernel/src/arch/arm/object/vcpu.c" 1
	msr lr_irq, r2
@ 0 "" 2
	.arm
	.syntax unified
	b	.L513
.LVL463:
.L525:
.LBE6647:
.LBE6646:
.LBB6648:
.LBB6649:
	.loc 25 226 0
	.syntax divided
@ 226 "/home/sel4/work/work2/kernel/src/arch/arm/object/vcpu.c" 1
	msr sp_irq, r2
@ 0 "" 2
	.arm
	.syntax unified
	b	.L513
.LVL464:
.L526:
.LBE6649:
.LBE6648:
.LBB6650:
.LBB6651:
	.loc 25 240 0
	.syntax divided
@ 240 "/home/sel4/work/work2/kernel/src/arch/arm/object/vcpu.c" 1
	msr lr_fiq, r2
@ 0 "" 2
	.arm
	.syntax unified
	b	.L513
.LVL465:
.L527:
.LBE6651:
.LBE6650:
.LBB6652:
.LBB6653:
	.loc 25 254 0
	.syntax divided
@ 254 "/home/sel4/work/work2/kernel/src/arch/arm/object/vcpu.c" 1
	msr sp_fiq, r2
@ 0 "" 2
	.arm
	.syntax unified
	b	.L513
.LVL466:
.L528:
.LBE6653:
.LBE6652:
.LBB6654:
.LBB6655:
	.loc 25 268 0
	.syntax divided
@ 268 "/home/sel4/work/work2/kernel/src/arch/arm/object/vcpu.c" 1
	msr r8_fiq, r2
@ 0 "" 2
	.arm
	.syntax unified
	b	.L513
.LVL467:
.L529:
.LBE6655:
.LBE6654:
.LBB6656:
.LBB6657:
	.loc 25 282 0
	.syntax divided
@ 282 "/home/sel4/work/work2/kernel/src/arch/arm/object/vcpu.c" 1
	msr r9_fiq, r2
@ 0 "" 2
	.arm
	.syntax unified
	b	.L513
.LVL468:
.L530:
.LBE6657:
.LBE6656:
.LBB6658:
.LBB6659:
	.loc 25 296 0
	.syntax divided
@ 296 "/home/sel4/work/work2/kernel/src/arch/arm/object/vcpu.c" 1
	msr r10_fiq, r2
@ 0 "" 2
	.arm
	.syntax unified
	b	.L513
.LVL469:
.L531:
.LBE6659:
.LBE6658:
.LBB6660:
.LBB6661:
	.loc 25 310 0
	.syntax divided
@ 310 "/home/sel4/work/work2/kernel/src/arch/arm/object/vcpu.c" 1
	msr r11_fiq, r2
@ 0 "" 2
	.arm
	.syntax unified
	b	.L513
.LVL470:
.L514:
.LBE6661:
.LBE6660:
	.loc 25 705 0
	cmp	r1, #15
	ldrls	pc, [pc, r1, asl #2]
	b	.L535
.L537:
	.word	.L536
	.word	.L538
	.word	.L539
	.word	.L540
	.word	.L541
	.word	.L542
	.word	.L543
	.word	.L544
	.word	.L545
	.word	.L546
	.word	.L547
	.word	.L548
	.word	.L549
	.word	.L550
	.word	.L551
	.word	.L552
.L515:
	.loc 25 702 0
	movw	r1, #:lower16:.LC32
.LVL471:
	movw	r0, #:lower16:.LC33
.LVL472:
	ldr	r3, .L554
	movt	r1, #:upper16:.LC32
	movt	r0, #:upper16:.LC33
	movw	r2, #702
.LVL473:
	bl	_fail
.LVL474:
.L536:
	.loc 25 707 0
	str	r2, [r0, #4]
	.loc 25 708 0
	b	.L513
.L552:
	.loc 25 752 0
	str	r2, [r0, #336]
	.loc 25 753 0
	b	.L513
.L551:
	.loc 25 749 0
	str	r2, [r0, #332]
	.loc 25 750 0
	b	.L513
.L550:
	.loc 25 746 0
	str	r2, [r0, #328]
	.loc 25 747 0
	b	.L513
.L549:
	.loc 25 743 0
	str	r2, [r0, #324]
	.loc 25 744 0
	b	.L513
.L548:
	.loc 25 740 0
	str	r2, [r0, #320]
	.loc 25 741 0
	b	.L513
.L547:
	.loc 25 737 0
	str	r2, [r0, #316]
	.loc 25 738 0
	b	.L513
.L546:
	.loc 25 734 0
	str	r2, [r0, #312]
	.loc 25 735 0
	b	.L513
.L545:
	.loc 25 731 0
	str	r2, [r0, #308]
	.loc 25 732 0
	b	.L513
.L544:
	.loc 25 728 0
	str	r2, [r0, #304]
	.loc 25 729 0
	b	.L513
.L543:
	.loc 25 725 0
	str	r2, [r0, #300]
	.loc 25 726 0
	b	.L513
.L542:
	.loc 25 722 0
	str	r2, [r0, #296]
	.loc 25 723 0
	b	.L513
.L541:
	.loc 25 719 0
	str	r2, [r0, #292]
	.loc 25 720 0
	b	.L513
.L540:
	.loc 25 716 0
	str	r2, [r0, #288]
	.loc 25 717 0
	b	.L513
.L539:
	.loc 25 713 0
	str	r2, [r0, #284]
	.loc 25 714 0
	b	.L513
.L538:
	.loc 25 710 0
	str	r2, [r0, #280]
	.loc 25 711 0
	b	.L513
.L535:
	.loc 25 755 0
	movw	r1, #:lower16:.LC32
.LVL475:
	movw	r0, #:lower16:.LC33
.LVL476:
	ldr	r3, .L554
	movt	r1, #:upper16:.LC32
	movt	r0, #:upper16:.LC33
	movw	r2, #755
.LVL477:
	bl	_fail
.LVL478:
.L555:
	.align	2
.L554:
	.word	.LANCHOR3+112
	.cfi_endproc
.LFE632:
	.size	writeVCPUReg, .-writeVCPUReg
	.align	2
	.global	invokeVCPUWriteReg
	.syntax unified
	.arm
	.fpu softvfp
	.type	invokeVCPUWriteReg, %function
invokeVCPUWriteReg:
.LFB641:
	.loc 25 946 0
	.cfi_startproc
	@ args = 0, pretend = 0, frame = 0
	@ frame_needed = 0, uses_anonymous_args = 0
.LVL479:
	str	r4, [sp, #-8]!
	.cfi_def_cfa_offset 8
	.cfi_offset 4, -8
	.cfi_offset 14, -4
	str	lr, [sp, #4]
	.loc 25 947 0
	bl	writeVCPUReg
.LVL480:
	.loc 25 949 0
	ldr	r4, [sp]
	.cfi_restore 4
	add	sp, sp, #4
	.cfi_def_cfa_offset 4
	mov	r0, #0
	ldr	pc, [sp], #4
	.cfi_restore 15
	.cfi_def_cfa_offset 0
	.cfi_endproc
.LFE641:
	.size	invokeVCPUWriteReg, .-invokeVCPUWriteReg
	.align	2
	.syntax unified
	.arm
	.fpu softvfp
	.type	completeSignal.part.271, %function
completeSignal.part.271:
.LFB1146:
	.file 35 "/home/sel4/work/work2/kernel/src/object/notification.c"
	.loc 35 207 0
	.cfi_startproc
	@ Volatile: function does not return.
	@ args = 0, pretend = 0, frame = 0
	@ frame_needed = 0, uses_anonymous_args = 0
.LVL481:
	.loc 35 216 0
	movw	r1, #:lower16:.LC34
	movw	r0, #:lower16:.LC35
	.loc 35 207 0
	str	r4, [sp, #-8]!
	.cfi_def_cfa_offset 8
	.cfi_offset 4, -8
	.cfi_offset 14, -4
	.loc 35 216 0
	ldr	r3, .L560
	movt	r1, #:upper16:.LC34
	movt	r0, #:upper16:.LC35
	mov	r2, #216
	.loc 35 207 0
	str	lr, [sp, #4]
	.loc 35 216 0
	bl	_fail
.LVL482:
.L561:
	.align	2
.L560:
	.word	.LANCHOR3+128
	.cfi_endproc
.LFE1146:
	.size	completeSignal.part.271, .-completeSignal.part.271
	.align	2
	.global	_assert_fail
	.syntax unified
	.arm
	.fpu softvfp
	.type	_assert_fail, %function
_assert_fail:
.LFB652:
	.loc 33 37 0
	.cfi_startproc
	@ Volatile: function does not return.
	@ args = 0, pretend = 0, frame = 0
	@ frame_needed = 0, uses_anonymous_args = 0
.LVL483:
	str	lr, [sp, #-4]!
	.cfi_def_cfa_offset 4
	.cfi_offset 14, -4
	sub	sp, sp, #12
	.cfi_def_cfa_offset 16
	.loc 33 38 0
	str	r3, [sp]
	mov	r3, r2
.LVL484:
	mov	r2, r1
.LVL485:
	mov	r1, r0
.LVL486:
	movw	r0, #:lower16:.LC36
.LVL487:
	movt	r0, #:upper16:.LC36
	bl	kprintf
.LVL488:
	.loc 33 44 0
	bl	halt
.LVL489:
	.cfi_endproc
.LFE652:
	.size	_assert_fail, .-_assert_fail
	.section	.text.unlikely
	.align	2
	.syntax unified
	.arm
	.fpu softvfp
	.type	seL4_Fault_CapFault_get_inReceivePhase.isra.74.part.75, %function
seL4_Fault_CapFault_get_inReceivePhase.isra.74.part.75:
.LFB950:
	.file 36 "./arch/object/structures_gen.h"
	.loc 36 2600 0
	.cfi_startproc
	@ Volatile: function does not return.
	@ args = 0, pretend = 0, frame = 0
	@ frame_needed = 0, uses_anonymous_args = 0
	.loc 36 2602 0
	movw	r1, #:lower16:.LC37
	movw	r0, #:lower16:.LC38
	ldr	r3, .L566
	.loc 36 2600 0
	push	{r4, lr}
	.cfi_def_cfa_offset 8
	.cfi_offset 4, -8
	.cfi_offset 14, -4
	.loc 36 2602 0
	movt	r1, #:upper16:.LC37
	movt	r0, #:upper16:.LC38
	movw	r2, #2603
	bl	_assert_fail
.LVL490:
.L567:
	.align	2
.L566:
	.word	.LANCHOR3+144
	.cfi_endproc
.LFE950:
	.size	seL4_Fault_CapFault_get_inReceivePhase.isra.74.part.75, .-seL4_Fault_CapFault_get_inReceivePhase.isra.74.part.75
	.align	2
	.syntax unified
	.arm
	.fpu softvfp
	.type	setMRs_lookup_failure.part.81, %function
setMRs_lookup_failure.part.81:
.LFB956:
	.file 37 "/home/sel4/work/work2/kernel/src/api/faults.c"
	.loc 37 31 0
	.cfi_startproc
	@ Volatile: function does not return.
	@ args = 0, pretend = 0, frame = 0
	@ frame_needed = 0, uses_anonymous_args = 0
.LVL491:
.LBB6662:
.LBB6663:
	.loc 36 566 0
	movw	r1, #:lower16:.LC37
	movw	r0, #:lower16:.LC39
	ldr	r3, .L570
.LBE6663:
.LBE6662:
	.loc 37 31 0
	push	{r4, lr}
	.cfi_def_cfa_offset 8
	.cfi_offset 4, -8
	.cfi_offset 14, -4
.LBB6665:
.LBB6664:
	.loc 36 566 0
	movt	r1, #:upper16:.LC37
	movt	r0, #:upper16:.LC39
	movw	r2, #567
	bl	_assert_fail
.LVL492:
.L571:
	.align	2
.L570:
	.word	.LANCHOR3+184
.LBE6664:
.LBE6665:
	.cfi_endproc
.LFE956:
	.size	setMRs_lookup_failure.part.81, .-setMRs_lookup_failure.part.81
	.align	2
	.syntax unified
	.arm
	.fpu softvfp
	.type	seL4_Fault_UnknownSyscall_get_syscallNumber.part.83, %function
seL4_Fault_UnknownSyscall_get_syscallNumber.part.83:
.LFB958:
	.loc 36 2629 0
	.cfi_startproc
	@ Volatile: function does not return.
	@ args = 0, pretend = 0, frame = 0
	@ frame_needed = 0, uses_anonymous_args = 0
	.loc 36 2631 0
	movw	r1, #:lower16:.LC37
	movw	r0, #:lower16:.LC40
	ldr	r3, .L574
	.loc 36 2629 0
	push	{r4, lr}
	.cfi_def_cfa_offset 8
	.cfi_offset 4, -8
	.cfi_offset 14, -4
	.loc 36 2631 0
	movt	r1, #:upper16:.LC37
	movt	r0, #:upper16:.LC40
	movw	r2, #2632
	bl	_assert_fail
.LVL493:
.L575:
	.align	2
.L574:
	.word	.LANCHOR3+232
	.cfi_endproc
.LFE958:
	.size	seL4_Fault_UnknownSyscall_get_syscallNumber.part.83, .-seL4_Fault_UnknownSyscall_get_syscallNumber.part.83
	.align	2
	.syntax unified
	.arm
	.fpu softvfp
	.type	seL4_Fault_UserException_get_number.part.84, %function
seL4_Fault_UserException_get_number.part.84:
.LFB959:
	.loc 36 2660 0
	.cfi_startproc
	@ Volatile: function does not return.
	@ args = 0, pretend = 0, frame = 0
	@ frame_needed = 0, uses_anonymous_args = 0
	.loc 36 2662 0
	movw	r1, #:lower16:.LC37
	movw	r0, #:lower16:.LC41
	ldr	r3, .L578
	.loc 36 2660 0
	push	{r4, lr}
	.cfi_def_cfa_offset 8
	.cfi_offset 4, -8
	.cfi_offset 14, -4
	.loc 36 2662 0
	movt	r1, #:upper16:.LC37
	movt	r0, #:upper16:.LC41
	movw	r2, #2663
	bl	_assert_fail
.LVL494:
.L579:
	.align	2
.L578:
	.word	.LANCHOR3+276
	.cfi_endproc
.LFE959:
	.size	seL4_Fault_UserException_get_number.part.84, .-seL4_Fault_UserException_get_number.part.84
	.align	2
	.syntax unified
	.arm
	.fpu softvfp
	.type	cap_thread_cap_get_capTCBPtr.isra.87.part.88, %function
cap_thread_cap_get_capTCBPtr.isra.87.part.88:
.LFB963:
	.loc 36 1467 0
	.cfi_startproc
	@ Volatile: function does not return.
	@ args = 0, pretend = 0, frame = 0
	@ frame_needed = 0, uses_anonymous_args = 0
	.loc 36 1469 0
	movw	r1, #:lower16:.LC37
	movw	r0, #:lower16:.LC42
	ldr	r3, .L582
	.loc 36 1467 0
	push	{r4, lr}
	.cfi_def_cfa_offset 8
	.cfi_offset 4, -8
	.cfi_offset 14, -4
	.loc 36 1469 0
	movt	r1, #:upper16:.LC37
	movt	r0, #:upper16:.LC42
	movw	r2, #1470
	bl	_assert_fail
.LVL495:
.L583:
	.align	2
.L582:
	.word	.LANCHOR3+312
	.cfi_endproc
.LFE963:
	.size	cap_thread_cap_get_capTCBPtr.isra.87.part.88, .-cap_thread_cap_get_capTCBPtr.isra.87.part.88
	.align	2
	.syntax unified
	.arm
	.fpu softvfp
	.type	cap_reply_cap_get_capReplyMaster.isra.90.part.91, %function
cap_reply_cap_get_capReplyMaster.isra.90.part.91:
.LFB966:
	.loc 36 1335 0
	.cfi_startproc
	@ Volatile: function does not return.
	@ args = 0, pretend = 0, frame = 0
	@ frame_needed = 0, uses_anonymous_args = 0
	.loc 36 1337 0
	movw	r1, #:lower16:.LC37
	movw	r0, #:lower16:.LC43
	ldr	r3, .L586
	.loc 36 1335 0
	push	{r4, lr}
	.cfi_def_cfa_offset 8
	.cfi_offset 4, -8
	.cfi_offset 14, -4
	.loc 36 1337 0
	movt	r1, #:upper16:.LC37
	movt	r0, #:upper16:.LC43
	movw	r2, #1338
	bl	_assert_fail
.LVL496:
.L587:
	.align	2
.L586:
	.word	.LANCHOR3+344
	.cfi_endproc
.LFE966:
	.size	cap_reply_cap_get_capReplyMaster.isra.90.part.91, .-cap_reply_cap_get_capReplyMaster.isra.90.part.91
	.text
	.align	2
	.syntax unified
	.arm
	.fpu softvfp
	.type	cap_reply_cap_get_capTCBPtr.isra.92.part.93, %function
cap_reply_cap_get_capTCBPtr.isra.92.part.93:
.LFB968:
	.loc 36 1321 0
	.cfi_startproc
	@ Volatile: function does not return.
	@ args = 0, pretend = 0, frame = 0
	@ frame_needed = 0, uses_anonymous_args = 0
	.loc 36 1323 0
	movw	r1, #:lower16:.LC37
	movw	r0, #:lower16:.LC43
	.loc 36 1321 0
	str	r4, [sp, #-8]!
	.cfi_def_cfa_offset 8
	.cfi_offset 4, -8
	.cfi_offset 14, -4
	.loc 36 1323 0
	ldr	r3, .L590
	movt	r1, #:upper16:.LC37
	movt	r0, #:upper16:.LC43
	movw	r2, #1324
	.loc 36 1321 0
	str	lr, [sp, #4]
	.loc 36 1323 0
	bl	_assert_fail
.LVL497:
.L591:
	.align	2
.L590:
	.word	.LANCHOR3+380
	.cfi_endproc
.LFE968:
	.size	cap_reply_cap_get_capTCBPtr.isra.92.part.93, .-cap_reply_cap_get_capTCBPtr.isra.92.part.93
	.align	2
	.syntax unified
	.arm
	.fpu softvfp
	.type	cap_endpoint_cap_get_capCanReceive.part.94, %function
cap_endpoint_cap_get_capCanReceive.part.94:
.LFB969:
	.loc 36 1097 0
	.cfi_startproc
	@ Volatile: function does not return.
	@ args = 0, pretend = 0, frame = 0
	@ frame_needed = 0, uses_anonymous_args = 0
	.loc 36 1099 0
	movw	r1, #:lower16:.LC37
	movw	r0, #:lower16:.LC44
	.loc 36 1097 0
	str	r4, [sp, #-8]!
	.cfi_def_cfa_offset 8
	.cfi_offset 4, -8
	.cfi_offset 14, -4
	.loc 36 1099 0
	ldr	r3, .L594
	movt	r1, #:upper16:.LC37
	movt	r0, #:upper16:.LC44
	movw	r2, #1100
	.loc 36 1097 0
	str	lr, [sp, #4]
	.loc 36 1099 0
	bl	_assert_fail
.LVL498:
.L595:
	.align	2
.L594:
	.word	.LANCHOR3+408
	.cfi_endproc
.LFE969:
	.size	cap_endpoint_cap_get_capCanReceive.part.94, .-cap_endpoint_cap_get_capCanReceive.part.94
	.section	.text.unlikely
	.align	2
	.syntax unified
	.arm
	.fpu softvfp
	.type	cap_notification_cap_get_capNtfnPtr.isra.95.part.96, %function
cap_notification_cap_get_capNtfnPtr.isra.95.part.96:
.LFB971:
	.loc 36 1275 0
	.cfi_startproc
	@ Volatile: function does not return.
	@ args = 0, pretend = 0, frame = 0
	@ frame_needed = 0, uses_anonymous_args = 0
	.loc 36 1277 0
	movw	r1, #:lower16:.LC37
	movw	r0, #:lower16:.LC45
	ldr	r3, .L598
	.loc 36 1275 0
	push	{r4, lr}
	.cfi_def_cfa_offset 8
	.cfi_offset 4, -8
	.cfi_offset 14, -4
	.loc 36 1277 0
	movt	r1, #:upper16:.LC37
	movt	r0, #:upper16:.LC45
	movw	r2, #1278
	bl	_assert_fail
.LVL499:
.L599:
	.align	2
.L598:
	.word	.LANCHOR3+444
	.cfi_endproc
.LFE971:
	.size	cap_notification_cap_get_capNtfnPtr.isra.95.part.96, .-cap_notification_cap_get_capNtfnPtr.isra.95.part.96
	.align	2
	.syntax unified
	.arm
	.fpu softvfp
	.type	lookup_fault_missing_capability_new.part.98, %function
lookup_fault_missing_capability_new.part.98:
.LFB973:
	.loc 36 548 0
	.cfi_startproc
	@ Volatile: function does not return.
	@ args = 0, pretend = 0, frame = 0
	@ frame_needed = 0, uses_anonymous_args = 0
.LVL500:
	.loc 36 552 0
	movw	r1, #:lower16:.LC37
	movw	r0, #:lower16:.LC46
	ldr	r3, .L602
	.loc 36 548 0
	push	{r4, lr}
	.cfi_def_cfa_offset 8
	.cfi_offset 4, -8
	.cfi_offset 14, -4
	.loc 36 552 0
	movt	r1, #:upper16:.LC37
	movt	r0, #:upper16:.LC46
	mov	r2, #552
	bl	_assert_fail
.LVL501:
.L603:
	.align	2
.L602:
	.word	.LANCHOR3+480
	.cfi_endproc
.LFE973:
	.size	lookup_fault_missing_capability_new.part.98, .-lookup_fault_missing_capability_new.part.98
	.text
	.align	2
	.syntax unified
	.arm
	.fpu softvfp
	.type	cap_cnode_cap_get_capCNodeGuardSize.part.99, %function
cap_cnode_cap_get_capCNodeGuardSize.part.99:
.LFB974:
	.loc 36 1371 0
	.cfi_startproc
	@ Volatile: function does not return.
	@ args = 0, pretend = 0, frame = 0
	@ frame_needed = 0, uses_anonymous_args = 0
	.loc 36 1373 0
	movw	r1, #:lower16:.LC37
	movw	r0, #:lower16:.LC47
	.loc 36 1371 0
	str	r4, [sp, #-8]!
	.cfi_def_cfa_offset 8
	.cfi_offset 4, -8
	.cfi_offset 14, -4
	.loc 36 1373 0
	ldr	r3, .L606
	movt	r1, #:upper16:.LC37
	movt	r0, #:upper16:.LC47
	movw	r2, #1374
	.loc 36 1371 0
	str	lr, [sp, #4]
	.loc 36 1373 0
	bl	_assert_fail
.LVL502:
.L607:
	.align	2
.L606:
	.word	.LANCHOR3+516
	.cfi_endproc
.LFE974:
	.size	cap_cnode_cap_get_capCNodeGuardSize.part.99, .-cap_cnode_cap_get_capCNodeGuardSize.part.99
	.section	.text.unlikely
	.align	2
	.syntax unified
	.arm
	.fpu softvfp
	.type	cap_cnode_cap_get_capCNodeRadix.part.100, %function
cap_cnode_cap_get_capCNodeRadix.part.100:
.LFB975:
	.loc 36 1397 0
	.cfi_startproc
	@ Volatile: function does not return.
	@ args = 0, pretend = 0, frame = 0
	@ frame_needed = 0, uses_anonymous_args = 0
	.loc 36 1399 0
	movw	r1, #:lower16:.LC37
	movw	r0, #:lower16:.LC47
	ldr	r3, .L610
	.loc 36 1397 0
	push	{r4, lr}
	.cfi_def_cfa_offset 8
	.cfi_offset 4, -8
	.cfi_offset 14, -4
	.loc 36 1399 0
	movt	r1, #:upper16:.LC37
	movt	r0, #:upper16:.LC47
	movw	r2, #1400
	bl	_assert_fail
.LVL503:
.L611:
	.align	2
.L610:
	.word	.LANCHOR3+552
	.cfi_endproc
.LFE975:
	.size	cap_cnode_cap_get_capCNodeRadix.part.100, .-cap_cnode_cap_get_capCNodeRadix.part.100
	.align	2
	.syntax unified
	.arm
	.fpu softvfp
	.type	cap_cnode_cap_get_capCNodePtr.isra.102.part.103, %function
cap_cnode_cap_get_capCNodePtr.isra.102.part.103:
.LFB978:
	.loc 36 1437 0
	.cfi_startproc
	@ Volatile: function does not return.
	@ args = 0, pretend = 0, frame = 0
	@ frame_needed = 0, uses_anonymous_args = 0
	.loc 36 1439 0
	movw	r1, #:lower16:.LC37
	movw	r0, #:lower16:.LC47
	ldr	r3, .L614
	.loc 36 1437 0
	push	{r4, lr}
	.cfi_def_cfa_offset 8
	.cfi_offset 4, -8
	.cfi_offset 14, -4
	.loc 36 1439 0
	movt	r1, #:upper16:.LC37
	movt	r0, #:upper16:.LC47
	mov	r2, #1440
	bl	_assert_fail
.LVL504:
.L615:
	.align	2
.L614:
	.word	.LANCHOR3+584
	.cfi_endproc
.LFE978:
	.size	cap_cnode_cap_get_capCNodePtr.isra.102.part.103, .-cap_cnode_cap_get_capCNodePtr.isra.102.part.103
	.text
	.align	2
	.syntax unified
	.arm
	.fpu softvfp
	.type	cap_endpoint_cap_get_capCanSend.part.104, %function
cap_endpoint_cap_get_capCanSend.part.104:
.LFB979:
	.loc 36 1123 0
	.cfi_startproc
	@ Volatile: function does not return.
	@ args = 0, pretend = 0, frame = 0
	@ frame_needed = 0, uses_anonymous_args = 0
	.loc 36 1125 0
	movw	r1, #:lower16:.LC37
	movw	r0, #:lower16:.LC44
	.loc 36 1123 0
	str	r4, [sp, #-8]!
	.cfi_def_cfa_offset 8
	.cfi_offset 4, -8
	.cfi_offset 14, -4
	.loc 36 1125 0
	ldr	r3, .L618
	movt	r1, #:upper16:.LC37
	movt	r0, #:upper16:.LC44
	movw	r2, #1126
	.loc 36 1123 0
	str	lr, [sp, #4]
	.loc 36 1125 0
	bl	_assert_fail
.LVL505:
.L619:
	.align	2
.L618:
	.word	.LANCHOR3+616
	.cfi_endproc
.LFE979:
	.size	cap_endpoint_cap_get_capCanSend.part.104, .-cap_endpoint_cap_get_capCanSend.part.104
	.section	.text.unlikely
	.align	2
	.syntax unified
	.arm
	.fpu softvfp
	.type	cap_endpoint_cap_get_capEPPtr.part.105, %function
cap_endpoint_cap_get_capEPPtr.part.105:
.LFB980:
	.loc 36 1057 0
	.cfi_startproc
	@ Volatile: function does not return.
	@ args = 0, pretend = 0, frame = 0
	@ frame_needed = 0, uses_anonymous_args = 0
	.loc 36 1059 0
	movw	r1, #:lower16:.LC37
	movw	r0, #:lower16:.LC44
	ldr	r3, .L622
	.loc 36 1057 0
	push	{r4, lr}
	.cfi_def_cfa_offset 8
	.cfi_offset 4, -8
	.cfi_offset 14, -4
	.loc 36 1059 0
	movt	r1, #:upper16:.LC37
	movt	r0, #:upper16:.LC44
	movw	r2, #1060
	bl	_assert_fail
.LVL506:
.L623:
	.align	2
.L622:
	.word	.LANCHOR3+648
	.cfi_endproc
.LFE980:
	.size	cap_endpoint_cap_get_capEPPtr.part.105, .-cap_endpoint_cap_get_capEPPtr.part.105
	.text
	.align	2
	.syntax unified
	.arm
	.fpu softvfp
	.type	cap_page_directory_cap_get_capPDBasePtr.isra.106.part.107, %function
cap_page_directory_cap_get_capPDBasePtr.isra.106.part.107:
.LFB982:
	.loc 36 2033 0
	.cfi_startproc
	@ Volatile: function does not return.
	@ args = 0, pretend = 0, frame = 0
	@ frame_needed = 0, uses_anonymous_args = 0
	.loc 36 2035 0
	movw	r1, #:lower16:.LC37
	movw	r0, #:lower16:.LC48
	.loc 36 2033 0
	str	r4, [sp, #-8]!
	.cfi_def_cfa_offset 8
	.cfi_offset 4, -8
	.cfi_offset 14, -4
	.loc 36 2035 0
	ldr	r3, .L626
	movt	r1, #:upper16:.LC37
	movt	r0, #:upper16:.LC48
	movw	r2, #2036
	.loc 36 2033 0
	str	lr, [sp, #4]
	.loc 36 2035 0
	bl	_assert_fail
.LVL507:
.L627:
	.align	2
.L626:
	.word	.LANCHOR3+680
	.cfi_endproc
.LFE982:
	.size	cap_page_directory_cap_get_capPDBasePtr.isra.106.part.107, .-cap_page_directory_cap_get_capPDBasePtr.isra.106.part.107
	.align	2
	.syntax unified
	.arm
	.fpu softvfp
	.type	pde_pde_invalid_get_stored_asid_valid.isra.109.part.110, %function
pde_pde_invalid_get_stored_asid_valid.isra.109.part.110:
.LFB985:
	.loc 36 2361 0
	.cfi_startproc
	@ Volatile: function does not return.
	@ args = 0, pretend = 0, frame = 0
	@ frame_needed = 0, uses_anonymous_args = 0
	.loc 36 2363 0
	movw	r1, #:lower16:.LC37
	movw	r0, #:lower16:.LC49
	.loc 36 2361 0
	str	r4, [sp, #-8]!
	.cfi_def_cfa_offset 8
	.cfi_offset 4, -8
	.cfi_offset 14, -4
	.loc 36 2363 0
	ldr	r3, .L630
	movt	r1, #:upper16:.LC37
	movt	r0, #:upper16:.LC49
	movw	r2, #2364
	.loc 36 2361 0
	str	lr, [sp, #4]
	.loc 36 2363 0
	bl	_assert_fail
.LVL508:
.L631:
	.align	2
.L630:
	.word	.LANCHOR3+720
	.cfi_endproc
.LFE985:
	.size	pde_pde_invalid_get_stored_asid_valid.isra.109.part.110, .-pde_pde_invalid_get_stored_asid_valid.isra.109.part.110
	.section	.text.unlikely
	.align	2
	.syntax unified
	.arm
	.fpu softvfp
	.type	cap_endpoint_cap_get_capEPBadge.isra.111.part.112, %function
cap_endpoint_cap_get_capEPBadge.isra.111.part.112:
.LFB987:
	.loc 36 1149 0
	.cfi_startproc
	@ Volatile: function does not return.
	@ args = 0, pretend = 0, frame = 0
	@ frame_needed = 0, uses_anonymous_args = 0
	.loc 36 1151 0
	movw	r1, #:lower16:.LC37
	movw	r0, #:lower16:.LC44
	ldr	r3, .L634
	.loc 36 1149 0
	push	{r4, lr}
	.cfi_def_cfa_offset 8
	.cfi_offset 4, -8
	.cfi_offset 14, -4
	.loc 36 1151 0
	movt	r1, #:upper16:.LC37
	movt	r0, #:upper16:.LC44
	mov	r2, #1152
	bl	_assert_fail
.LVL509:
.L635:
	.align	2
.L634:
	.word	.LANCHOR3+760
	.cfi_endproc
.LFE987:
	.size	cap_endpoint_cap_get_capEPBadge.isra.111.part.112, .-cap_endpoint_cap_get_capEPBadge.isra.111.part.112
	.align	2
	.syntax unified
	.arm
	.fpu softvfp
	.type	mdb_node_new.part.116, %function
mdb_node_new.part.116:
.LFB991:
	.loc 36 249 0
	.cfi_startproc
	@ Volatile: function does not return.
	@ args = 0, pretend = 0, frame = 0
	@ frame_needed = 0, uses_anonymous_args = 0
.LVL510:
	.loc 36 253 0
	movw	r1, #:lower16:.LC37
	movw	r0, #:lower16:.LC50
	ldr	r3, .L638
	.loc 36 249 0
	push	{r4, lr}
	.cfi_def_cfa_offset 8
	.cfi_offset 4, -8
	.cfi_offset 14, -4
	.loc 36 253 0
	movt	r1, #:upper16:.LC37
	movt	r0, #:upper16:.LC50
	mov	r2, #253
	bl	_assert_fail
.LVL511:
.L639:
	.align	2
.L638:
	.word	.LANCHOR3+792
	.cfi_endproc
.LFE991:
	.size	mdb_node_new.part.116, .-mdb_node_new.part.116
	.align	2
	.syntax unified
	.arm
	.fpu softvfp
	.type	pteS1_pteS1_small_new.part.117, %function
pteS1_pteS1_small_new.part.117:
.LFB992:
	.loc 36 696 0
	.cfi_startproc
	@ Volatile: function does not return.
	@ args = 0, pretend = 0, frame = 0
	@ frame_needed = 0, uses_anonymous_args = 0
.LVL512:
	.loc 36 700 0
	movw	r1, #:lower16:.LC37
	movw	r0, #:lower16:.LC51
	ldr	r3, .L642
	.loc 36 696 0
	push	{r4, lr}
	.cfi_def_cfa_offset 8
	.cfi_offset 4, -8
	.cfi_offset 14, -4
	.loc 36 700 0
	movt	r1, #:upper16:.LC37
	movt	r0, #:upper16:.LC51
	mov	r2, #700
	bl	_assert_fail
.LVL513:
.L643:
	.align	2
.L642:
	.word	.LANCHOR3+808
	.cfi_endproc
.LFE992:
	.size	pteS1_pteS1_small_new.part.117, .-pteS1_pteS1_small_new.part.117
	.align	2
	.syntax unified
	.arm
	.fpu softvfp
	.type	pdeS1_pdeS1_coarse_new.part.119, %function
pdeS1_pdeS1_coarse_new.part.119:
.LFB994:
	.loc 36 2884 0
	.cfi_startproc
	@ Volatile: function does not return.
	@ args = 0, pretend = 0, frame = 0
	@ frame_needed = 0, uses_anonymous_args = 0
.LVL514:
	.loc 36 2888 0
	movw	r1, #:lower16:.LC37
	movw	r0, #:lower16:.LC52
	ldr	r3, .L646
	.loc 36 2884 0
	push	{r4, lr}
	.cfi_def_cfa_offset 8
	.cfi_offset 4, -8
	.cfi_offset 14, -4
	.loc 36 2888 0
	movt	r1, #:upper16:.LC37
	movt	r0, #:upper16:.LC52
	movw	r2, #2888
	bl	_assert_fail
.LVL515:
.L647:
	.align	2
.L646:
	.word	.LANCHOR3+832
	.cfi_endproc
.LFE994:
	.size	pdeS1_pdeS1_coarse_new.part.119, .-pdeS1_pdeS1_coarse_new.part.119
	.align	2
	.syntax unified
	.arm
	.fpu softvfp
	.type	vm_attributes_new.part.120, %function
vm_attributes_new.part.120:
.LFB995:
	.loc 36 404 0
	.cfi_startproc
	@ Volatile: function does not return.
	@ args = 0, pretend = 0, frame = 0
	@ frame_needed = 0, uses_anonymous_args = 0
.LVL516:
	.loc 36 408 0
	movw	r1, #:lower16:.LC37
	movw	r0, #:lower16:.LC53
	ldr	r3, .L650
	.loc 36 404 0
	push	{r4, lr}
	.cfi_def_cfa_offset 8
	.cfi_offset 4, -8
	.cfi_offset 14, -4
	.loc 36 408 0
	movt	r1, #:upper16:.LC37
	movt	r0, #:upper16:.LC53
	mov	r2, #408
	bl	_assert_fail
.LVL517:
.L651:
	.align	2
.L650:
	.word	.LANCHOR3+856
	.cfi_endproc
.LFE995:
	.size	vm_attributes_new.part.120, .-vm_attributes_new.part.120
	.align	2
	.syntax unified
	.arm
	.fpu softvfp
	.type	cap_page_directory_cap_new.part.121, %function
cap_page_directory_cap_new.part.121:
.LFB996:
	.loc 36 1986 0
	.cfi_startproc
	@ Volatile: function does not return.
	@ args = 0, pretend = 0, frame = 0
	@ frame_needed = 0, uses_anonymous_args = 0
.LVL518:
	.loc 36 1990 0
	movw	r1, #:lower16:.LC37
	movw	r0, #:lower16:.LC54
	ldr	r3, .L654
	.loc 36 1986 0
	push	{r4, lr}
	.cfi_def_cfa_offset 8
	.cfi_offset 4, -8
	.cfi_offset 14, -4
	.loc 36 1990 0
	movt	r1, #:upper16:.LC37
	movt	r0, #:upper16:.LC54
	movw	r2, #1990
	bl	_assert_fail
.LVL519:
.L655:
	.align	2
.L654:
	.word	.LANCHOR3+876
	.cfi_endproc
.LFE996:
	.size	cap_page_directory_cap_new.part.121, .-cap_page_directory_cap_new.part.121
	.align	2
	.syntax unified
	.arm
	.fpu softvfp
	.type	cap_untyped_cap_get_capPtr.isra.122.part.123, %function
cap_untyped_cap_get_capPtr.isra.122.part.123:
.LFB998:
	.loc 36 1019 0
	.cfi_startproc
	@ Volatile: function does not return.
	@ args = 0, pretend = 0, frame = 0
	@ frame_needed = 0, uses_anonymous_args = 0
	.loc 36 1021 0
	movw	r1, #:lower16:.LC37
	movw	r0, #:lower16:.LC55
	ldr	r3, .L658
	.loc 36 1019 0
	push	{r4, lr}
	.cfi_def_cfa_offset 8
	.cfi_offset 4, -8
	.cfi_offset 14, -4
	.loc 36 1021 0
	movt	r1, #:upper16:.LC37
	movt	r0, #:upper16:.LC55
	movw	r2, #1022
	bl	_assert_fail
.LVL520:
.L659:
	.align	2
.L658:
	.word	.LANCHOR3+904
	.cfi_endproc
.LFE998:
	.size	cap_untyped_cap_get_capPtr.isra.122.part.123, .-cap_untyped_cap_get_capPtr.isra.122.part.123
	.align	2
	.syntax unified
	.arm
	.fpu softvfp
	.type	cap_zombie_cap_get_capZombieType.isra.124.part.125, %function
cap_zombie_cap_get_capZombieType.isra.124.part.125:
.LFB1000:
	.loc 36 2175 0
	.cfi_startproc
	@ Volatile: function does not return.
	@ args = 0, pretend = 0, frame = 0
	@ frame_needed = 0, uses_anonymous_args = 0
	.loc 36 2177 0
	movw	r1, #:lower16:.LC37
	movw	r0, #:lower16:.LC56
	ldr	r3, .L662
	.loc 36 2175 0
	push	{r4, lr}
	.cfi_def_cfa_offset 8
	.cfi_offset 4, -8
	.cfi_offset 14, -4
	.loc 36 2177 0
	movt	r1, #:upper16:.LC37
	movt	r0, #:upper16:.LC56
	movw	r2, #2178
	bl	_assert_fail
.LVL521:
.L663:
	.align	2
.L662:
	.word	.LANCHOR3+932
	.cfi_endproc
.LFE1000:
	.size	cap_zombie_cap_get_capZombieType.isra.124.part.125, .-cap_zombie_cap_get_capZombieType.isra.124.part.125
	.align	2
	.syntax unified
	.arm
	.fpu softvfp
	.type	cap_small_frame_cap_get_capFBasePtr.isra.129.part.130, %function
cap_small_frame_cap_get_capFBasePtr.isra.129.part.130:
.LFB1005:
	.loc 36 1625 0
	.cfi_startproc
	@ Volatile: function does not return.
	@ args = 0, pretend = 0, frame = 0
	@ frame_needed = 0, uses_anonymous_args = 0
	.loc 36 1627 0
	movw	r1, #:lower16:.LC37
	movw	r0, #:lower16:.LC57
	ldr	r3, .L666
	.loc 36 1625 0
	push	{r4, lr}
	.cfi_def_cfa_offset 8
	.cfi_offset 4, -8
	.cfi_offset 14, -4
	.loc 36 1627 0
	movt	r1, #:upper16:.LC37
	movt	r0, #:upper16:.LC57
	movw	r2, #1628
	bl	_assert_fail
.LVL522:
.L667:
	.align	2
.L666:
	.word	.LANCHOR3+968
	.cfi_endproc
.LFE1005:
	.size	cap_small_frame_cap_get_capFBasePtr.isra.129.part.130, .-cap_small_frame_cap_get_capFBasePtr.isra.129.part.130
	.align	2
	.syntax unified
	.arm
	.fpu softvfp
	.type	cap_frame_cap_get_capFBasePtr.isra.131.part.132, %function
cap_frame_cap_get_capFBasePtr.isra.131.part.132:
.LFB1007:
	.loc 36 1799 0
	.cfi_startproc
	@ Volatile: function does not return.
	@ args = 0, pretend = 0, frame = 0
	@ frame_needed = 0, uses_anonymous_args = 0
	.loc 36 1801 0
	movw	r1, #:lower16:.LC37
	movw	r0, #:lower16:.LC58
	ldr	r3, .L670
	.loc 36 1799 0
	push	{r4, lr}
	.cfi_def_cfa_offset 8
	.cfi_offset 4, -8
	.cfi_offset 14, -4
	.loc 36 1801 0
	movt	r1, #:upper16:.LC37
	movt	r0, #:upper16:.LC58
	movw	r2, #1802
	bl	_assert_fail
.LVL523:
.L671:
	.align	2
.L670:
	.word	.LANCHOR3+1004
	.cfi_endproc
.LFE1007:
	.size	cap_frame_cap_get_capFBasePtr.isra.131.part.132, .-cap_frame_cap_get_capFBasePtr.isra.131.part.132
	.align	2
	.syntax unified
	.arm
	.fpu softvfp
	.type	generic_frame_cap_get_capFBasePtr.isra.133.part.134, %function
generic_frame_cap_get_capFBasePtr.isra.133.part.134:
.LFB1009:
	.file 38 "/home/sel4/work/work2/kernel/include/arch/arm/arch/32/mode/object/structures.h"
	.loc 38 230 0
	.cfi_startproc
	@ Volatile: function does not return.
	@ args = 0, pretend = 0, frame = 0
	@ frame_needed = 0, uses_anonymous_args = 0
	.loc 38 235 0
	movw	r1, #:lower16:.LC59
	movw	r0, #:lower16:.LC60
	ldr	r3, .L674
	.loc 38 230 0
	push	{r4, lr}
	.cfi_def_cfa_offset 8
	.cfi_offset 4, -8
	.cfi_offset 14, -4
	.loc 38 235 0
	movt	r1, #:upper16:.LC59
	movt	r0, #:upper16:.LC60
	mov	r2, #236
	bl	_assert_fail
.LVL524:
.L675:
	.align	2
.L674:
	.word	.LANCHOR3+1036
	.cfi_endproc
.LFE1009:
	.size	generic_frame_cap_get_capFBasePtr.isra.133.part.134, .-generic_frame_cap_get_capFBasePtr.isra.133.part.134
	.align	2
	.syntax unified
	.arm
	.fpu softvfp
	.type	cap_page_table_cap_get_capPTBasePtr.isra.135.part.136, %function
cap_page_table_cap_get_capPTBasePtr.isra.135.part.136:
.LFB1011:
	.loc 36 1972 0
	.cfi_startproc
	@ Volatile: function does not return.
	@ args = 0, pretend = 0, frame = 0
	@ frame_needed = 0, uses_anonymous_args = 0
	.loc 36 1974 0
	movw	r1, #:lower16:.LC37
	movw	r0, #:lower16:.LC61
	ldr	r3, .L678
	.loc 36 1972 0
	push	{r4, lr}
	.cfi_def_cfa_offset 8
	.cfi_offset 4, -8
	.cfi_offset 14, -4
	.loc 36 1974 0
	movt	r1, #:upper16:.LC37
	movt	r0, #:upper16:.LC61
	movw	r2, #1975
	bl	_assert_fail
.LVL525:
.L679:
	.align	2
.L678:
	.word	.LANCHOR3+1072
	.cfi_endproc
.LFE1011:
	.size	cap_page_table_cap_get_capPTBasePtr.isra.135.part.136, .-cap_page_table_cap_get_capPTBasePtr.isra.135.part.136
	.align	2
	.syntax unified
	.arm
	.fpu softvfp
	.type	cap_asid_pool_cap_get_capASIDPool.isra.137.part.138, %function
cap_asid_pool_cap_get_capASIDPool.isra.137.part.138:
.LFB1013:
	.loc 36 1845 0
	.cfi_startproc
	@ Volatile: function does not return.
	@ args = 0, pretend = 0, frame = 0
	@ frame_needed = 0, uses_anonymous_args = 0
	.loc 36 1847 0
	movw	r1, #:lower16:.LC37
	movw	r0, #:lower16:.LC62
	ldr	r3, .L682
	.loc 36 1845 0
	push	{r4, lr}
	.cfi_def_cfa_offset 8
	.cfi_offset 4, -8
	.cfi_offset 14, -4
	.loc 36 1847 0
	movt	r1, #:upper16:.LC37
	movt	r0, #:upper16:.LC62
	movw	r2, #1848
	bl	_assert_fail
.LVL526:
.L683:
	.align	2
.L682:
	.word	.LANCHOR3+1108
	.cfi_endproc
.LFE1013:
	.size	cap_asid_pool_cap_get_capASIDPool.isra.137.part.138, .-cap_asid_pool_cap_get_capASIDPool.isra.137.part.138
	.align	2
	.syntax unified
	.arm
	.fpu softvfp
	.type	cap_vcpu_cap_get_capVCPUPtr.isra.139.part.140, %function
cap_vcpu_cap_get_capVCPUPtr.isra.139.part.140:
.LFB1015:
	.loc 36 2219 0
	.cfi_startproc
	@ Volatile: function does not return.
	@ args = 0, pretend = 0, frame = 0
	@ frame_needed = 0, uses_anonymous_args = 0
	.loc 36 2221 0
	movw	r1, #:lower16:.LC37
	movw	r0, #:lower16:.LC63
	ldr	r3, .L686
	.loc 36 2219 0
	push	{r4, lr}
	.cfi_def_cfa_offset 8
	.cfi_offset 4, -8
	.cfi_offset 14, -4
	.loc 36 2221 0
	movt	r1, #:upper16:.LC37
	movt	r0, #:upper16:.LC63
	movw	r2, #2222
	bl	_assert_fail
.LVL527:
.L687:
	.align	2
.L686:
	.word	.LANCHOR3+1144
	.cfi_endproc
.LFE1015:
	.size	cap_vcpu_cap_get_capVCPUPtr.isra.139.part.140, .-cap_vcpu_cap_get_capVCPUPtr.isra.139.part.140
	.section	.boot.text
	.align	2
	.global	write_it_asid_pool
	.syntax unified
	.arm
	.fpu softvfp
	.type	write_it_asid_pool, %function
write_it_asid_pool:
.LFB413:
	.loc 11 671 0
	.cfi_startproc
	@ args = 0, pretend = 0, frame = 16
	@ frame_needed = 0, uses_anonymous_args = 0
	str	lr, [sp, #-4]!
	.cfi_def_cfa_offset 4
	.cfi_offset 14, -4
	sub	sp, sp, #20
	.cfi_def_cfa_offset 24
	.loc 11 671 0
	add	ip, sp, #16
	stm	sp, {r2, r3}
	stmdb	ip, {r0, r1}
	ldr	r0, [sp, #8]
.LVL528:
	ldr	ip, [sp, #12]
.LVL529:
.LBB6746:
.LBB6747:
.LBB6748:
.LBB6749:
	.loc 36 903 0
	and	r3, r0, #14
	cmp	r3, #14
	.loc 36 905 0
	uxtbeq	r2, r0
	.loc 36 904 0
	andne	r2, r0, #15
.LBE6749:
.LBE6748:
	.file 39 "/home/sel4/work/work2/kernel/include/object/structures.h"
	.loc 39 387 0
	sub	r3, r2, #2
	cmp	r3, #60
	ldrls	pc, [pc, r3, asl #2]
	b	.L691
.L693:
	.word	.L692
	.word	.L691
	.word	.L694
	.word	.L691
	.word	.L695
	.word	.L691
	.word	.L759
	.word	.L691
	.word	.L697
	.word	.L691
	.word	.L698
	.word	.L691
	.word	.L759
	.word	.L691
	.word	.L691
	.word	.L691
	.word	.L691
	.word	.L691
	.word	.L691
	.word	.L691
	.word	.L691
	.word	.L691
	.word	.L691
	.word	.L691
	.word	.L691
	.word	.L691
	.word	.L691
	.word	.L691
	.word	.L759
	.word	.L691
	.word	.L691
	.word	.L691
	.word	.L691
	.word	.L691
	.word	.L691
	.word	.L691
	.word	.L691
	.word	.L691
	.word	.L691
	.word	.L691
	.word	.L691
	.word	.L691
	.word	.L691
	.word	.L691
	.word	.L699
	.word	.L691
	.word	.L691
	.word	.L691
	.word	.L691
	.word	.L691
	.word	.L691
	.word	.L691
	.word	.L691
	.word	.L691
	.word	.L691
	.word	.L691
	.word	.L691
	.word	.L691
	.word	.L691
	.word	.L691
	.word	.L759
.L759:
.LBB6750:
.LBB6751:
	.loc 38 414 0
	mov	r3, #0
.L696:
	ldm	sp, {r2, ip}
.LVL530:
.LBE6751:
.LBE6750:
.LBE6747:
.LBE6746:
.LBB6816:
.LBB6817:
.LBB6818:
.LBB6819:
	.loc 36 903 0
	and	r1, r2, #14
	cmp	r1, #14
	.loc 36 905 0
	uxtbeq	r0, r2
.LVL531:
	.loc 36 904 0
	andne	r0, r2, #15
.LBE6819:
.LBE6818:
	.loc 39 387 0
	sub	r1, r0, #2
	cmp	r1, #60
	ldrls	pc, [pc, r1, asl #2]
	b	.L725
.L727:
	.word	.L726
	.word	.L725
	.word	.L728
	.word	.L725
	.word	.L729
	.word	.L725
	.word	.L763
	.word	.L725
	.word	.L731
	.word	.L725
	.word	.L732
	.word	.L725
	.word	.L763
	.word	.L725
	.word	.L725
	.word	.L725
	.word	.L725
	.word	.L725
	.word	.L725
	.word	.L725
	.word	.L725
	.word	.L725
	.word	.L725
	.word	.L725
	.word	.L725
	.word	.L725
	.word	.L725
	.word	.L725
	.word	.L763
	.word	.L725
	.word	.L725
	.word	.L725
	.word	.L725
	.word	.L725
	.word	.L725
	.word	.L725
	.word	.L725
	.word	.L725
	.word	.L725
	.word	.L725
	.word	.L725
	.word	.L725
	.word	.L725
	.word	.L725
	.word	.L733
	.word	.L725
	.word	.L725
	.word	.L725
	.word	.L725
	.word	.L725
	.word	.L725
	.word	.L725
	.word	.L725
	.word	.L725
	.word	.L725
	.word	.L725
	.word	.L725
	.word	.L725
	.word	.L725
	.word	.L725
	.word	.L763
.L763:
.LBB6820:
.LBB6821:
	.loc 38 414 0
	mov	r2, #0
.LVL532:
.L730:
.LBE6821:
.LBE6820:
.LBE6817:
.LBE6816:
	.loc 11 674 0
	movw	r1, #:lower16:armKSASIDTable
	.loc 11 673 0
	str	r2, [r3, #4]
	.loc 11 674 0
	movt	r1, #:upper16:armKSASIDTable
	str	r3, [r1]
	.loc 11 675 0
	add	sp, sp, #20
	.cfi_remember_state
	.cfi_def_cfa_offset 4
	@ sp needed
	ldr	pc, [sp], #4
.LVL533:
.L729:
	.cfi_restore_state
.LBB6872:
.LBB6868:
.LBB6847:
.LBB6848:
	.loc 36 1277 0
	and	r1, r2, #15
	cmp	r1, #6
	bne	.L736
.LVL534:
.L768:
.LBE6848:
.LBE6847:
.LBB6849:
.LBB6842:
.LBB6822:
.LBB6823:
	.loc 36 1850 0
	bic	r2, r2, #15
.LVL535:
	b	.L730
.LVL536:
.L728:
.LBE6823:
.LBE6822:
.LBE6842:
.LBE6849:
.LBB6850:
.LBB6851:
	.loc 36 1059 0
	and	r2, r2, #15
.LVL537:
	cmp	r2, #4
	bne	.L735
	.loc 36 1062 0
	bic	r2, ip, #15
	b	.L730
.LVL538:
.L726:
.LBE6851:
.LBE6850:
.LBB6852:
.LBB6853:
	.loc 36 1021 0
	and	r1, r2, #15
	cmp	r1, #2
	beq	.L768
.LVL539:
.L734:
.LBE6853:
.LBE6852:
.LBE6868:
.LBE6872:
.LBB6873:
.LBB6812:
.LBB6780:
.LBB6781:
	bl	cap_untyped_cap_get_capPtr.isra.122.part.123
.LVL540:
.L697:
.LBE6781:
.LBE6780:
.LBB6783:
.LBB6784:
	.loc 36 1439 0
	and	r3, r0, #15
	cmp	r3, #10
	.loc 36 1442 0
	biceq	r3, r0, #31
	.loc 36 1439 0
	beq	.L696
.LVL541:
.L737:
	bl	cap_cnode_cap_get_capCNodePtr.isra.102.part.103
.LVL542:
.L698:
.LBE6784:
.LBE6783:
.LBB6785:
.LBB6786:
	.loc 36 1469 0
	and	r3, r0, #15
	cmp	r3, #12
	bne	.L738
.L719:
.LBE6786:
.LBE6785:
.LBB6788:
.LBB6774:
.LBB6752:
.LBB6753:
	.loc 36 1977 0
	bic	r3, r0, #1020
	bic	r3, r3, #3
	b	.L696
.L699:
.LVL543:
.LBE6753:
.LBE6752:
.LBE6774:
.LBE6788:
.LBB6789:
.LBB6790:
.LBB6791:
.LBB6792:
.LBB6793:
.LBB6794:
	.loc 36 2177 0
	uxtb	r3, r0
	cmp	r3, #46
	bne	.L739
	.loc 36 2180 0
	lsr	r3, r0, #8
	and	r2, r3, #63
.LBE6794:
.LBE6793:
	.loc 39 103 0
	cmp	r2, #32
	mvneq	r3, #31
	beq	.L706
	.loc 39 106 0
	and	r3, r3, #31
	mvn	r2, #0
	add	r3, r3, #1
	lsl	r3, r2, r3
.L706:
.LVL544:
.LBE6792:
.LBE6791:
	.loc 39 120 0
	and	r3, r3, ip
	b	.L696
.LVL545:
.L692:
.LBE6790:
.LBE6789:
.LBB6800:
.LBB6782:
	.loc 36 1021 0
	and	r3, r0, #15
	cmp	r3, #2
	bne	.L734
.L721:
.LBE6782:
.LBE6800:
.LBB6801:
.LBB6775:
.LBB6755:
.LBB6756:
	.loc 36 1850 0
	bic	r3, r0, #15
	b	.L696
.L694:
.LVL546:
.LBE6756:
.LBE6755:
.LBE6775:
.LBE6801:
.LBB6802:
.LBB6803:
	.loc 36 1059 0
	and	r3, r0, #15
	cmp	r3, #4
	.loc 36 1062 0
	biceq	r3, ip, #15
	.loc 36 1059 0
	beq	.L696
.LVL547:
.L735:
	bl	cap_endpoint_cap_get_capEPPtr.part.105
.LVL548:
.L695:
.LBE6803:
.LBE6802:
.LBB6804:
.LBB6805:
	.loc 36 1277 0
	and	r3, r0, #15
	cmp	r3, #6
	beq	.L721
.LVL549:
.L736:
	bl	cap_notification_cap_get_capNtfnPtr.isra.95.part.96
.LVL550:
.L733:
.LBE6805:
.LBE6804:
.LBE6812:
.LBE6873:
.LBB6874:
.LBB6869:
.LBB6854:
.LBB6855:
.LBB6856:
.LBB6857:
.LBB6858:
.LBB6859:
	.loc 36 2177 0
	uxtb	r1, r2
	cmp	r1, #46
	bne	.L739
	.loc 36 2180 0
	lsr	r2, r2, #8
.LVL551:
	and	r1, r2, #63
.LBE6859:
.LBE6858:
	.loc 39 103 0
	cmp	r1, #32
	mvneq	r2, #31
	beq	.L740
	.loc 39 106 0
	and	r2, r2, #31
	mvn	r1, #0
	add	r2, r2, #1
	lsl	r2, r1, r2
.L740:
.LVL552:
.LBE6857:
.LBE6856:
	.loc 39 120 0
	and	r2, r2, ip
	b	.L730
.LVL553:
.L732:
.LBE6855:
.LBE6854:
.LBB6860:
.LBB6861:
	.loc 36 1469 0
	and	r1, r2, #15
	cmp	r1, #12
	bne	.L738
.LVL554:
.L769:
.LBE6861:
.LBE6860:
.LBB6862:
.LBB6843:
.LBB6825:
.LBB6826:
	.loc 36 1977 0
	bic	r2, r2, #1020
.LVL555:
	bic	r2, r2, #3
	b	.L730
.LVL556:
.L731:
.LBE6826:
.LBE6825:
.LBE6843:
.LBE6862:
.LBB6863:
.LBB6864:
	.loc 36 1439 0
	and	r1, r2, #15
	cmp	r1, #10
	bne	.L737
.LVL557:
	.loc 36 1442 0
	bic	r2, r2, #31
.LVL558:
	b	.L730
.LVL559:
.L725:
.LBE6864:
.LBE6863:
.LBB6865:
.LBB6844:
	.loc 38 398 0
	sub	r1, r0, #1
	cmp	r1, #14
	ldrls	pc, [pc, r1, asl #2]
	b	.L763
.L742:
	.word	.L741
	.word	.L763
	.word	.L741
	.word	.L763
	.word	.L743
	.word	.L763
	.word	.L744
	.word	.L763
	.word	.L745
	.word	.L763
	.word	.L763
	.word	.L763
	.word	.L763
	.word	.L763
	.word	.L746
.LVL560:
.L691:
.LBE6844:
.LBE6865:
.LBE6869:
.LBE6874:
.LBB6875:
.LBB6813:
.LBB6806:
.LBB6776:
	sub	r3, r2, #1
	cmp	r3, #14
	ldrls	pc, [pc, r3, asl #2]
	b	.L759
.L708:
	.word	.L707
	.word	.L759
	.word	.L707
	.word	.L759
	.word	.L709
	.word	.L759
	.word	.L710
	.word	.L759
	.word	.L711
	.word	.L759
	.word	.L759
	.word	.L759
	.word	.L759
	.word	.L759
	.word	.L712
.L711:
.LVL561:
.LBB6758:
.LBB6759:
	.loc 36 2035 0
	and	r3, r0, #15
	cmp	r3, #9
	.loc 36 2038 0
	biceq	r3, r0, #16320
	biceq	r3, r3, #63
	.loc 36 2035 0
	beq	.L696
.LVL562:
.L754:
	bl	cap_page_directory_cap_get_capPDBasePtr.isra.106.part.107
.LVL563:
.L710:
.LBE6759:
.LBE6758:
.LBB6760:
.LBB6754:
	.loc 36 1974 0
	and	r3, r0, #15
	cmp	r3, #7
	beq	.L719
.LVL564:
.L753:
	bl	cap_page_table_cap_get_capPTBasePtr.isra.135.part.136
.LVL565:
.L709:
.LBE6754:
.LBE6760:
.LBB6761:
.LBB6757:
	.loc 36 1847 0
	and	r3, r0, #15
	cmp	r3, #5
	beq	.L721
.LVL566:
.L755:
	bl	cap_asid_pool_cap_get_capASIDPool.isra.137.part.138
.LVL567:
.L707:
.LBE6757:
.LBE6761:
.LBB6762:
.LBB6763:
	.loc 38 235 0
	mvn	r3, r2
	ands	r3, r3, #1
	bne	.L747
	.loc 38 238 0
	cmp	r2, #1
	beq	.L715
	cmp	r2, #3
	bne	.L696
.LVL568:
.LBB6764:
.LBB6765:
	.loc 36 1801 0
	and	r3, r0, #15
	cmp	r3, #3
	.loc 36 1804 0
	moveq	r3, #49152
	movteq	r3, 65535
	andeq	r3, r3, r0, lsl #10
	.loc 36 1801 0
	beq	.L696
.LVL569:
.L752:
	bl	cap_frame_cap_get_capFBasePtr.isra.131.part.132
.LVL570:
.L745:
.LBE6765:
.LBE6764:
.LBE6763:
.LBE6762:
.LBE6776:
.LBE6806:
.LBE6813:
.LBE6875:
.LBB6876:
.LBB6870:
.LBB6866:
.LBB6845:
.LBB6828:
.LBB6829:
	.loc 36 2035 0
	and	r1, r2, #15
	cmp	r1, #9
	bne	.L754
.LVL571:
	.loc 36 2038 0
	bic	r2, r2, #16320
.LVL572:
	bic	r2, r2, #63
	b	.L730
.LVL573:
.L744:
.LBE6829:
.LBE6828:
.LBB6830:
.LBB6827:
	.loc 36 1974 0
	and	r1, r2, #15
	cmp	r1, #7
	beq	.L769
	b	.L753
.LVL574:
.L743:
.LBE6827:
.LBE6830:
.LBB6831:
.LBB6824:
	.loc 36 1847 0
	and	r1, r2, #15
	cmp	r1, #5
	beq	.L768
	b	.L755
.LVL575:
.L741:
.LBE6824:
.LBE6831:
.LBB6832:
.LBB6833:
	.loc 38 235 0
	mvn	r1, r0
	ands	r1, r1, #1
	bne	.L747
	.loc 38 238 0
	cmp	r0, #1
	beq	.L749
	cmp	r0, #3
	bne	.L763
.LVL576:
.LBB6834:
.LBB6835:
	.loc 36 1801 0
	and	r1, r2, #15
	cmp	r1, #3
	bne	.L752
.LVL577:
	.loc 36 1804 0
	mov	r1, #49152
	movt	r1, 65535
	and	r2, r1, r2, lsl #10
.LVL578:
	b	.L730
.LVL579:
.L712:
.LBE6835:
.LBE6834:
.LBE6833:
.LBE6832:
.LBE6845:
.LBE6866:
.LBE6870:
.LBE6876:
.LBB6877:
.LBB6814:
.LBB6807:
.LBB6777:
.LBB6770:
.LBB6771:
	.loc 36 2221 0
	uxtb	r3, r0
	cmp	r3, #15
	.loc 36 2224 0
	biceq	r3, r0, #255
	.loc 36 2221 0
	beq	.L696
.LVL580:
.L756:
	bl	cap_vcpu_cap_get_capVCPUPtr.isra.139.part.140
.LVL581:
.L746:
.LBE6771:
.LBE6770:
.LBE6777:
.LBE6807:
.LBE6814:
.LBE6877:
.LBB6878:
.LBB6871:
.LBB6867:
.LBB6846:
.LBB6839:
.LBB6840:
	uxtb	r1, r2
	cmp	r1, #15
	bne	.L756
.LVL582:
	.loc 36 2224 0
	bic	r2, r2, #255
.LVL583:
	b	.L730
.LVL584:
.L749:
.LBE6840:
.LBE6839:
.LBB6841:
.LBB6838:
.LBB6836:
.LBB6837:
	.loc 36 1627 0
	and	r1, r2, #15
	cmp	r1, #1
	bne	.L751
.LVL585:
	.loc 36 1630 0
	mov	r1, #61440
	movt	r1, 65535
	and	r2, r1, r2, lsl #8
.LVL586:
	b	.L730
.LVL587:
.L715:
.LBE6837:
.LBE6836:
.LBE6838:
.LBE6841:
.LBE6846:
.LBE6867:
.LBE6871:
.LBE6878:
.LBB6879:
.LBB6815:
.LBB6808:
.LBB6778:
.LBB6772:
.LBB6768:
.LBB6766:
.LBB6767:
	.loc 36 1627 0
	and	r3, r0, #15
	cmp	r3, #1
	.loc 36 1630 0
	moveq	r3, #61440
	movteq	r3, 65535
	andeq	r3, r3, r0, lsl #8
	.loc 36 1627 0
	beq	.L696
.LVL588:
.L751:
	bl	cap_small_frame_cap_get_capFBasePtr.isra.129.part.130
.LVL589:
.L739:
.LBE6767:
.LBE6766:
.LBE6768:
.LBE6772:
.LBE6778:
.LBE6808:
.LBB6809:
.LBB6799:
.LBB6798:
.LBB6797:
.LBB6796:
.LBB6795:
	bl	cap_zombie_cap_get_capZombieType.isra.124.part.125
.LVL590:
.L738:
.LBE6795:
.LBE6796:
.LBE6797:
.LBE6798:
.LBE6799:
.LBE6809:
.LBB6810:
.LBB6787:
	bl	cap_thread_cap_get_capTCBPtr.isra.87.part.88
.LVL591:
.L747:
.LBE6787:
.LBE6810:
.LBB6811:
.LBB6779:
.LBB6773:
.LBB6769:
	bl	generic_frame_cap_get_capFBasePtr.isra.133.part.134
.LVL592:
.LBE6769:
.LBE6773:
.LBE6779:
.LBE6811:
.LBE6815:
.LBE6879:
	.cfi_endproc
.LFE413:
	.size	write_it_asid_pool, .-write_it_asid_pool
	.section	.text.unlikely
	.align	2
	.syntax unified
	.arm
	.fpu softvfp
	.type	cap_page_table_cap_new.part.142, %function
cap_page_table_cap_new.part.142:
.LFB1017:
	.loc 36 1859 0
	.cfi_startproc
	@ Volatile: function does not return.
	@ args = 0, pretend = 0, frame = 0
	@ frame_needed = 0, uses_anonymous_args = 0
.LVL593:
	.loc 36 1863 0
	movw	r1, #:lower16:.LC37
	movw	r0, #:lower16:.LC64
	ldr	r3, .L772
	.loc 36 1859 0
	push	{r4, lr}
	.cfi_def_cfa_offset 8
	.cfi_offset 4, -8
	.cfi_offset 14, -4
	.loc 36 1863 0
	movt	r1, #:upper16:.LC37
	movt	r0, #:upper16:.LC64
	movw	r2, #1863
	bl	_assert_fail
.LVL594:
.L773:
	.align	2
.L772:
	.word	.LANCHOR3+1172
	.cfi_endproc
.LFE1017:
	.size	cap_page_table_cap_new.part.142, .-cap_page_table_cap_new.part.142
	.align	2
	.syntax unified
	.arm
	.fpu softvfp
	.type	cap_page_table_cap_get_capPTIsMapped.part.144, %function
cap_page_table_cap_get_capPTIsMapped.part.144:
.LFB1019:
	.loc 36 1881 0
	.cfi_startproc
	@ Volatile: function does not return.
	@ args = 0, pretend = 0, frame = 0
	@ frame_needed = 0, uses_anonymous_args = 0
	.loc 36 1883 0
	movw	r1, #:lower16:.LC37
	movw	r0, #:lower16:.LC61
	ldr	r3, .L776
	.loc 36 1881 0
	push	{r4, lr}
	.cfi_def_cfa_offset 8
	.cfi_offset 4, -8
	.cfi_offset 14, -4
	.loc 36 1883 0
	movt	r1, #:upper16:.LC37
	movt	r0, #:upper16:.LC61
	movw	r2, #1884
	bl	_assert_fail
.LVL595:
.L777:
	.align	2
.L776:
	.word	.LANCHOR3+1196
	.cfi_endproc
.LFE1019:
	.size	cap_page_table_cap_get_capPTIsMapped.part.144, .-cap_page_table_cap_get_capPTIsMapped.part.144
	.align	2
	.syntax unified
	.arm
	.fpu softvfp
	.type	pde_pde_coarse_new.part.145, %function
pde_pde_coarse_new.part.145:
.LFB1020:
	.loc 36 2485 0
	.cfi_startproc
	@ Volatile: function does not return.
	@ args = 0, pretend = 0, frame = 0
	@ frame_needed = 0, uses_anonymous_args = 0
.LVL596:
	.loc 36 2489 0
	movw	r1, #:lower16:.LC37
	movw	r0, #:lower16:.LC65
	ldr	r3, .L780
	.loc 36 2485 0
	push	{r4, lr}
	.cfi_def_cfa_offset 8
	.cfi_offset 4, -8
	.cfi_offset 14, -4
	.loc 36 2489 0
	movt	r1, #:upper16:.LC37
	movt	r0, #:upper16:.LC65
	movw	r2, #2489
	bl	_assert_fail
.LVL597:
.L781:
	.align	2
.L780:
	.word	.LANCHOR3+1236
	.cfi_endproc
.LFE1020:
	.size	pde_pde_coarse_new.part.145, .-pde_pde_coarse_new.part.145
	.align	2
	.syntax unified
	.arm
	.fpu softvfp
	.type	cap_frame_cap_new.part.148, %function
cap_frame_cap_new.part.148:
.LFB1023:
	.loc 36 1639 0
	.cfi_startproc
	@ Volatile: function does not return.
	@ args = 0, pretend = 0, frame = 0
	@ frame_needed = 0, uses_anonymous_args = 0
.LVL598:
	.loc 36 1643 0
	movw	r1, #:lower16:.LC37
	movw	r0, #:lower16:.LC66
	ldr	r3, .L784
	.loc 36 1639 0
	push	{r4, lr}
	.cfi_def_cfa_offset 8
	.cfi_offset 4, -8
	.cfi_offset 14, -4
	.loc 36 1643 0
	movt	r1, #:upper16:.LC37
	movt	r0, #:upper16:.LC66
	movw	r2, #1643
	bl	_assert_fail
.LVL599:
.L785:
	.align	2
.L784:
	.word	.LANCHOR3+1256
	.cfi_endproc
.LFE1023:
	.size	cap_frame_cap_new.part.148, .-cap_frame_cap_new.part.148
	.align	2
	.syntax unified
	.arm
	.fpu softvfp
	.type	cap_small_frame_cap_new.part.149, %function
cap_small_frame_cap_new.part.149:
.LFB1024:
	.loc 36 1481 0
	.cfi_startproc
	@ Volatile: function does not return.
	@ args = 0, pretend = 0, frame = 0
	@ frame_needed = 0, uses_anonymous_args = 0
.LVL600:
	.loc 36 1485 0
	movw	r1, #:lower16:.LC37
	movw	r0, #:lower16:.LC67
	ldr	r3, .L788
	.loc 36 1481 0
	push	{r4, lr}
	.cfi_def_cfa_offset 8
	.cfi_offset 4, -8
	.cfi_offset 14, -4
	.loc 36 1485 0
	movt	r1, #:upper16:.LC37
	movt	r0, #:upper16:.LC67
	movw	r2, #1485
	bl	_assert_fail
.LVL601:
.L789:
	.align	2
.L788:
	.word	.LANCHOR3+1276
	.cfi_endproc
.LFE1024:
	.size	cap_small_frame_cap_new.part.149, .-cap_small_frame_cap_new.part.149
	.align	2
	.syntax unified
	.arm
	.fpu softvfp
	.type	cap_small_frame_cap_get_capFMappedAddress.part.151, %function
cap_small_frame_cap_get_capFMappedAddress.part.151:
.LFB1026:
	.loc 36 1559 0
	.cfi_startproc
	@ Volatile: function does not return.
	@ args = 0, pretend = 0, frame = 0
	@ frame_needed = 0, uses_anonymous_args = 0
	.loc 36 1561 0
	movw	r1, #:lower16:.LC37
	movw	r0, #:lower16:.LC57
	ldr	r3, .L792
	.loc 36 1559 0
	push	{r4, lr}
	.cfi_def_cfa_offset 8
	.cfi_offset 4, -8
	.cfi_offset 14, -4
	.loc 36 1561 0
	movt	r1, #:upper16:.LC37
	movt	r0, #:upper16:.LC57
	movw	r2, #1562
	bl	_assert_fail
.LVL602:
.L793:
	.align	2
.L792:
	.word	.LANCHOR3+1300
	.cfi_endproc
.LFE1026:
	.size	cap_small_frame_cap_get_capFMappedAddress.part.151, .-cap_small_frame_cap_get_capFMappedAddress.part.151
	.align	2
	.syntax unified
	.arm
	.fpu softvfp
	.type	cap_frame_cap_get_capFMappedAddress.part.152, %function
cap_frame_cap_get_capFMappedAddress.part.152:
.LFB1027:
	.loc 36 1733 0
	.cfi_startproc
	@ Volatile: function does not return.
	@ args = 0, pretend = 0, frame = 0
	@ frame_needed = 0, uses_anonymous_args = 0
	.loc 36 1735 0
	movw	r1, #:lower16:.LC37
	movw	r0, #:lower16:.LC58
	ldr	r3, .L796
	.loc 36 1733 0
	push	{r4, lr}
	.cfi_def_cfa_offset 8
	.cfi_offset 4, -8
	.cfi_offset 14, -4
	.loc 36 1735 0
	movt	r1, #:upper16:.LC37
	movt	r0, #:upper16:.LC58
	movw	r2, #1736
	bl	_assert_fail
.LVL603:
.L797:
	.align	2
.L796:
	.word	.LANCHOR3+1344
	.cfi_endproc
.LFE1027:
	.size	cap_frame_cap_get_capFMappedAddress.part.152, .-cap_frame_cap_get_capFMappedAddress.part.152
	.align	2
	.syntax unified
	.arm
	.fpu softvfp
	.type	generic_frame_cap_get_capFMappedAddress.part.153, %function
generic_frame_cap_get_capFMappedAddress.part.153:
.LFB1028:
	.loc 38 278 0
	.cfi_startproc
	@ Volatile: function does not return.
	@ args = 0, pretend = 0, frame = 0
	@ frame_needed = 0, uses_anonymous_args = 0
	.loc 38 283 0
	movw	r1, #:lower16:.LC59
	movw	r0, #:lower16:.LC60
	ldr	r3, .L800
	.loc 38 278 0
	push	{r4, lr}
	.cfi_def_cfa_offset 8
	.cfi_offset 4, -8
	.cfi_offset 14, -4
	.loc 38 283 0
	movt	r1, #:upper16:.LC59
	movt	r0, #:upper16:.LC60
	mov	r2, #284
	bl	_assert_fail
.LVL604:
.L801:
	.align	2
.L800:
	.word	.LANCHOR3+1380
	.cfi_endproc
.LFE1028:
	.size	generic_frame_cap_get_capFMappedAddress.part.153, .-generic_frame_cap_get_capFMappedAddress.part.153
	.align	2
	.syntax unified
	.arm
	.fpu softvfp
	.type	cap_small_frame_cap_get_capFMappedASID.part.155, %function
cap_small_frame_cap_get_capFMappedASID.part.155:
.LFB1030:
	.loc 38 142 0
	.cfi_startproc
	@ Volatile: function does not return.
	@ args = 0, pretend = 0, frame = 0
	@ frame_needed = 0, uses_anonymous_args = 0
.LBB6880:
.LBB6881:
	.loc 36 1601 0
	movw	r1, #:lower16:.LC37
	movw	r0, #:lower16:.LC57
	ldr	r3, .L804
.LBE6881:
.LBE6880:
	.loc 38 142 0
	push	{r4, lr}
	.cfi_def_cfa_offset 8
	.cfi_offset 4, -8
	.cfi_offset 14, -4
.LBB6883:
.LBB6882:
	.loc 36 1601 0
	movt	r1, #:upper16:.LC37
	movt	r0, #:upper16:.LC57
	movw	r2, #1602
	bl	_assert_fail
.LVL605:
.L805:
	.align	2
.L804:
	.word	.LANCHOR3+1420
.LBE6882:
.LBE6883:
	.cfi_endproc
.LFE1030:
	.size	cap_small_frame_cap_get_capFMappedASID.part.155, .-cap_small_frame_cap_get_capFMappedASID.part.155
	.align	2
	.syntax unified
	.arm
	.fpu softvfp
	.type	cap_frame_cap_get_capFMappedASID.part.157, %function
cap_frame_cap_get_capFMappedASID.part.157:
.LFB1032:
	.loc 38 158 0
	.cfi_startproc
	@ Volatile: function does not return.
	@ args = 0, pretend = 0, frame = 0
	@ frame_needed = 0, uses_anonymous_args = 0
.LBB6884:
.LBB6885:
	.loc 36 1775 0
	movw	r1, #:lower16:.LC37
	movw	r0, #:lower16:.LC58
	ldr	r3, .L808
.LBE6885:
.LBE6884:
	.loc 38 158 0
	push	{r4, lr}
	.cfi_def_cfa_offset 8
	.cfi_offset 4, -8
	.cfi_offset 14, -4
.LBB6887:
.LBB6886:
	.loc 36 1775 0
	movt	r1, #:upper16:.LC37
	movt	r0, #:upper16:.LC58
	mov	r2, #1776
	bl	_assert_fail
.LVL606:
.L809:
	.align	2
.L808:
	.word	.LANCHOR3+1464
.LBE6886:
.LBE6887:
	.cfi_endproc
.LFE1032:
	.size	cap_frame_cap_get_capFMappedASID.part.157, .-cap_frame_cap_get_capFMappedASID.part.157
	.align	2
	.syntax unified
	.arm
	.fpu softvfp
	.type	generic_frame_cap_get_capFMappedASID.part.158, %function
generic_frame_cap_get_capFMappedASID.part.158:
.LFB1033:
	.loc 38 165 0
	.cfi_startproc
	@ Volatile: function does not return.
	@ args = 0, pretend = 0, frame = 0
	@ frame_needed = 0, uses_anonymous_args = 0
	.loc 38 171 0
	movw	r1, #:lower16:.LC59
	movw	r0, #:lower16:.LC60
	ldr	r3, .L812
	.loc 38 165 0
	push	{r4, lr}
	.cfi_def_cfa_offset 8
	.cfi_offset 4, -8
	.cfi_offset 14, -4
	.loc 38 171 0
	movt	r1, #:upper16:.LC59
	movt	r0, #:upper16:.LC60
	mov	r2, #172
	bl	_assert_fail
.LVL607:
.L813:
	.align	2
.L812:
	.word	.LANCHOR3+1504
	.cfi_endproc
.LFE1033:
	.size	generic_frame_cap_get_capFMappedASID.part.158, .-generic_frame_cap_get_capFMappedASID.part.158
	.align	2
	.syntax unified
	.arm
	.fpu softvfp
	.type	pde_pde_coarse_ptr_get_address.isra.159.part.160, %function
pde_pde_coarse_ptr_get_address.isra.159.part.160:
.LFB1035:
	.loc 36 2515 0
	.cfi_startproc
	@ Volatile: function does not return.
	@ args = 0, pretend = 0, frame = 0
	@ frame_needed = 0, uses_anonymous_args = 0
	.loc 36 2517 0
	movw	r1, #:lower16:.LC37
	movw	r0, #:lower16:.LC68
	ldr	r3, .L816
	.loc 36 2515 0
	push	{r4, lr}
	.cfi_def_cfa_offset 8
	.cfi_offset 4, -8
	.cfi_offset 14, -4
	.loc 36 2517 0
	movt	r1, #:upper16:.LC37
	movt	r0, #:upper16:.LC68
	movw	r2, #2518
	bl	_assert_fail
.LVL608:
.L817:
	.align	2
.L816:
	.word	.LANCHOR3+1544
	.cfi_endproc
.LFE1035:
	.size	pde_pde_coarse_ptr_get_address.isra.159.part.160, .-pde_pde_coarse_ptr_get_address.isra.159.part.160
	.text
	.align	2
	.global	lookupPTSlot
	.syntax unified
	.arm
	.fpu softvfp
	.type	lookupPTSlot, %function
lookupPTSlot:
.LFB418:
	.loc 11 777 0
	.cfi_startproc
	@ args = 0, pretend = 0, frame = 0
	@ frame_needed = 0, uses_anonymous_args = 0
	@ link register save eliminated.
.LVL609:
.LBB6910:
.LBB6911:
	.loc 11 771 0
	lsr	r3, r2, #21
	ldr	r3, [r1, r3, lsl #3]
.LVL610:
.LBE6911:
.LBE6910:
.LBB6912:
.LBB6913:
	.loc 36 2325 0
	and	r1, r3, #3
.LVL611:
.LBE6913:
.LBE6912:
	.loc 11 783 0
	cmp	r1, #3
	bne	.L821
.LVL612:
.LBB6914:
.LBB6915:
.LBB6916:
	.loc 36 2520 0
	bic	r3, r3, #4080
.LVL613:
.LBE6916:
.LBE6915:
	.loc 11 794 0
	ubfx	r2, r2, #12, #9
.LVL614:
.LBB6918:
.LBB6917:
	.loc 36 2520 0
	bic	r3, r3, #15
.LBE6917:
.LBE6918:
	.loc 11 799 0
	mov	r1, #0
.LBB6919:
.LBB6920:
	.loc 19 23 0
	add	r3, r3, #-2147483648
.LBE6920:
.LBE6919:
	.loc 11 795 0
	add	r3, r3, r2, lsl #3
	.loc 11 799 0
	stm	r0, {r1, r3}
.LVL615:
.LBE6914:
	.loc 11 801 0
	bx	lr
.LVL616:
.L821:
.LBB6921:
.LBB6922:
	.loc 11 784 0
	movw	r3, #:lower16:current_lookup_fault
	mov	r2, #0
.LVL617:
	movt	r3, #:upper16:current_lookup_fault
	mov	ip, #85
	.loc 11 788 0
	mov	r1, #2
	.loc 11 784 0
	str	ip, [r3]
	.loc 11 788 0
	stm	r0, {r1, r2}
	.loc 11 784 0
	str	r2, [r3, #4]
.LVL618:
.LBE6922:
.LBE6921:
	.loc 11 801 0
	bx	lr
	.cfi_endproc
.LFE418:
	.size	lookupPTSlot, .-lookupPTSlot
	.section	.text.unlikely
	.align	2
	.syntax unified
	.arm
	.fpu softvfp
	.type	pte_pte_small_new.part.162, %function
pte_pte_small_new.part.162:
.LFB1037:
	.loc 36 765 0
	.cfi_startproc
	@ Volatile: function does not return.
	@ args = 0, pretend = 0, frame = 0
	@ frame_needed = 0, uses_anonymous_args = 0
.LVL619:
	.loc 36 769 0
	movw	r1, #:lower16:.LC37
	movw	r0, #:lower16:.LC51
	ldr	r3, .L824
	.loc 36 765 0
	push	{r4, lr}
	.cfi_def_cfa_offset 8
	.cfi_offset 4, -8
	.cfi_offset 14, -4
	.loc 36 769 0
	movt	r1, #:upper16:.LC37
	movt	r0, #:upper16:.LC51
	movw	r2, #769
	bl	_assert_fail
.LVL620:
.L825:
	.align	2
.L824:
	.word	.LANCHOR3+1576
	.cfi_endproc
.LFE1037:
	.size	pte_pte_small_new.part.162, .-pte_pte_small_new.part.162
	.align	2
	.syntax unified
	.arm
	.fpu softvfp
	.type	cap_small_frame_cap_get_capFIsDevice.isra.164.part.165, %function
cap_small_frame_cap_get_capFIsDevice.isra.164.part.165:
.LFB1040:
	.loc 36 1585 0
	.cfi_startproc
	@ Volatile: function does not return.
	@ args = 0, pretend = 0, frame = 0
	@ frame_needed = 0, uses_anonymous_args = 0
	.loc 36 1587 0
	movw	r1, #:lower16:.LC37
	movw	r0, #:lower16:.LC57
	ldr	r3, .L828
	.loc 36 1585 0
	push	{r4, lr}
	.cfi_def_cfa_offset 8
	.cfi_offset 4, -8
	.cfi_offset 14, -4
	.loc 36 1587 0
	movt	r1, #:upper16:.LC37
	movt	r0, #:upper16:.LC57
	movw	r2, #1588
	bl	_assert_fail
.LVL621:
.L829:
	.align	2
.L828:
	.word	.LANCHOR3+1596
	.cfi_endproc
.LFE1040:
	.size	cap_small_frame_cap_get_capFIsDevice.isra.164.part.165, .-cap_small_frame_cap_get_capFIsDevice.isra.164.part.165
	.align	2
	.syntax unified
	.arm
	.fpu softvfp
	.type	cap_frame_cap_get_capFIsDevice.isra.166.part.167, %function
cap_frame_cap_get_capFIsDevice.isra.166.part.167:
.LFB1042:
	.loc 36 1759 0
	.cfi_startproc
	@ Volatile: function does not return.
	@ args = 0, pretend = 0, frame = 0
	@ frame_needed = 0, uses_anonymous_args = 0
	.loc 36 1761 0
	movw	r1, #:lower16:.LC37
	movw	r0, #:lower16:.LC58
	ldr	r3, .L832
	.loc 36 1759 0
	push	{r4, lr}
	.cfi_def_cfa_offset 8
	.cfi_offset 4, -8
	.cfi_offset 14, -4
	.loc 36 1761 0
	movt	r1, #:upper16:.LC37
	movt	r0, #:upper16:.LC58
	movw	r2, #1762
	bl	_assert_fail
.LVL622:
.L833:
	.align	2
.L832:
	.word	.LANCHOR3+1636
	.cfi_endproc
.LFE1042:
	.size	cap_frame_cap_get_capFIsDevice.isra.166.part.167, .-cap_frame_cap_get_capFIsDevice.isra.166.part.167
	.align	2
	.syntax unified
	.arm
	.fpu softvfp
	.type	generic_frame_cap_get_capFIsDevice.isra.168.part.169, %function
generic_frame_cap_get_capFIsDevice.isra.168.part.169:
.LFB1044:
	.loc 38 294 0
	.cfi_startproc
	@ Volatile: function does not return.
	@ args = 0, pretend = 0, frame = 0
	@ frame_needed = 0, uses_anonymous_args = 0
	.loc 38 299 0
	movw	r1, #:lower16:.LC59
	movw	r0, #:lower16:.LC60
	ldr	r3, .L836
	.loc 38 294 0
	push	{r4, lr}
	.cfi_def_cfa_offset 8
	.cfi_offset 4, -8
	.cfi_offset 14, -4
	.loc 38 299 0
	movt	r1, #:upper16:.LC59
	movt	r0, #:upper16:.LC60
	mov	r2, #300
	bl	_assert_fail
.LVL623:
.L837:
	.align	2
.L836:
	.word	.LANCHOR3+1668
	.cfi_endproc
.LFE1044:
	.size	generic_frame_cap_get_capFIsDevice.isra.168.part.169, .-generic_frame_cap_get_capFIsDevice.isra.168.part.169
	.align	2
	.syntax unified
	.arm
	.fpu softvfp
	.type	cap_small_frame_cap_get_capFVMRights.part.170, %function
cap_small_frame_cap_get_capFVMRights.part.170:
.LFB1045:
	.loc 36 1533 0
	.cfi_startproc
	@ Volatile: function does not return.
	@ args = 0, pretend = 0, frame = 0
	@ frame_needed = 0, uses_anonymous_args = 0
	.loc 36 1535 0
	movw	r1, #:lower16:.LC37
	movw	r0, #:lower16:.LC57
	ldr	r3, .L840
	.loc 36 1533 0
	push	{r4, lr}
	.cfi_def_cfa_offset 8
	.cfi_offset 4, -8
	.cfi_offset 14, -4
	.loc 36 1535 0
	movt	r1, #:upper16:.LC37
	movt	r0, #:upper16:.LC57
	mov	r2, #1536
	bl	_assert_fail
.LVL624:
.L841:
	.align	2
.L840:
	.word	.LANCHOR3+1704
	.cfi_endproc
.LFE1045:
	.size	cap_small_frame_cap_get_capFVMRights.part.170, .-cap_small_frame_cap_get_capFVMRights.part.170
	.align	2
	.syntax unified
	.arm
	.fpu softvfp
	.type	cap_frame_cap_get_capFVMRights.part.171, %function
cap_frame_cap_get_capFVMRights.part.171:
.LFB1046:
	.loc 36 1707 0
	.cfi_startproc
	@ Volatile: function does not return.
	@ args = 0, pretend = 0, frame = 0
	@ frame_needed = 0, uses_anonymous_args = 0
	.loc 36 1709 0
	movw	r1, #:lower16:.LC37
	movw	r0, #:lower16:.LC58
	ldr	r3, .L844
	.loc 36 1707 0
	push	{r4, lr}
	.cfi_def_cfa_offset 8
	.cfi_offset 4, -8
	.cfi_offset 14, -4
	.loc 36 1709 0
	movt	r1, #:upper16:.LC37
	movt	r0, #:upper16:.LC58
	movw	r2, #1710
	bl	_assert_fail
.LVL625:
.L845:
	.align	2
.L844:
	.word	.LANCHOR3+1744
	.cfi_endproc
.LFE1046:
	.size	cap_frame_cap_get_capFVMRights.part.171, .-cap_frame_cap_get_capFVMRights.part.171
	.align	2
	.syntax unified
	.arm
	.fpu softvfp
	.type	generic_frame_cap_get_capFVMRights.part.172, %function
generic_frame_cap_get_capFVMRights.part.172:
.LFB1047:
	.loc 38 209 0
	.cfi_startproc
	@ Volatile: function does not return.
	@ args = 0, pretend = 0, frame = 0
	@ frame_needed = 0, uses_anonymous_args = 0
	.loc 38 214 0
	movw	r1, #:lower16:.LC59
	movw	r0, #:lower16:.LC60
	ldr	r3, .L848
	.loc 38 209 0
	push	{r4, lr}
	.cfi_def_cfa_offset 8
	.cfi_offset 4, -8
	.cfi_offset 14, -4
	.loc 38 214 0
	movt	r1, #:upper16:.LC59
	movt	r0, #:upper16:.LC60
	mov	r2, #215
	bl	_assert_fail
.LVL626:
.L849:
	.align	2
.L848:
	.word	.LANCHOR3+1776
	.cfi_endproc
.LFE1047:
	.size	generic_frame_cap_get_capFVMRights.part.172, .-generic_frame_cap_get_capFVMRights.part.172
	.align	2
	.syntax unified
	.arm
	.fpu softvfp
	.type	cap_frame_cap_get_capFSize.part.173, %function
cap_frame_cap_get_capFSize.part.173:
.LFB1048:
	.loc 36 1667 0
	.cfi_startproc
	@ Volatile: function does not return.
	@ args = 0, pretend = 0, frame = 0
	@ frame_needed = 0, uses_anonymous_args = 0
	.loc 36 1669 0
	movw	r1, #:lower16:.LC37
	movw	r0, #:lower16:.LC58
	ldr	r3, .L852
	.loc 36 1667 0
	push	{r4, lr}
	.cfi_def_cfa_offset 8
	.cfi_offset 4, -8
	.cfi_offset 14, -4
	.loc 36 1669 0
	movt	r1, #:upper16:.LC37
	movt	r0, #:upper16:.LC58
	movw	r2, #1670
	bl	_assert_fail
.LVL627:
.L853:
	.align	2
.L852:
	.word	.LANCHOR3+1812
	.cfi_endproc
.LFE1048:
	.size	cap_frame_cap_get_capFSize.part.173, .-cap_frame_cap_get_capFSize.part.173
	.align	2
	.syntax unified
	.arm
	.fpu softvfp
	.type	generic_frame_cap_get_capFSize.part.174, %function
generic_frame_cap_get_capFSize.part.174:
.LFB1049:
	.loc 38 251 0
	.cfi_startproc
	@ Volatile: function does not return.
	@ args = 0, pretend = 0, frame = 0
	@ frame_needed = 0, uses_anonymous_args = 0
	.loc 38 256 0
	movw	r1, #:lower16:.LC59
	movw	r0, #:lower16:.LC60
	ldr	r3, .L856
	.loc 38 251 0
	push	{r4, lr}
	.cfi_def_cfa_offset 8
	.cfi_offset 4, -8
	.cfi_offset 14, -4
	.loc 38 256 0
	movt	r1, #:upper16:.LC59
	movt	r0, #:upper16:.LC60
	movw	r2, #257
	bl	_assert_fail
.LVL628:
.L857:
	.align	2
.L856:
	.word	.LANCHOR3+1840
	.cfi_endproc
.LFE1049:
	.size	generic_frame_cap_get_capFSize.part.174, .-generic_frame_cap_get_capFSize.part.174
	.text
	.align	2
	.global	lookupIPCBuffer
	.syntax unified
	.arm
	.fpu softvfp
	.type	lookupIPCBuffer, %function
lookupIPCBuffer:
.LFB415:
	.loc 11 711 0
	.cfi_startproc
	@ args = 0, pretend = 0, frame = 0
	@ frame_needed = 0, uses_anonymous_args = 0
.LVL629:
	.loc 11 717 0
	bic	ip, r1, #1020
	.loc 11 711 0
	str	r4, [sp, #-8]!
	.cfi_def_cfa_offset 8
	.cfi_offset 4, -8
	.cfi_offset 14, -4
	.loc 11 716 0
	ldr	r4, [r1, #500]
.LVL630:
	.loc 11 717 0
	bic	ip, ip, #3
	ldr	r1, [ip, #64]
.LVL631:
	ldr	ip, [ip, #68]
.LVL632:
	.loc 11 711 0
	str	lr, [sp, #4]
.LBB6960:
.LBB6961:
	.loc 36 903 0
	and	r3, r1, #14
	cmp	r3, #14
	.loc 36 905 0
	uxtbeq	lr, r1
.LVL633:
	.loc 36 904 0
	andne	lr, r1, #15
.LBE6961:
.LBE6960:
	.loc 11 719 0
	bic	r3, lr, #2
	cmp	r3, #1
	bne	.L884
.LBB6962:
.LBB6963:
	.loc 38 302 0
	cmp	lr, #1
	mov	r3, r0
.LVL634:
.LBB6964:
.LBB6965:
	.loc 36 1587 0
	and	r2, r1, #15
.LBE6965:
.LBE6964:
	.loc 38 302 0
	beq	.L900
.LVL635:
.LBB6968:
.LBB6969:
	.loc 36 1761 0
	cmp	r2, #3
	bne	.L901
.LVL636:
	.loc 36 1764 0
	ubfx	r0, r1, #29, #1
.LVL637:
.LBE6969:
.LBE6968:
.LBE6963:
.LBE6962:
	.loc 11 723 0
	cmp	r0, #0
	bne	.L884
.LVL638:
.LBB6976:
.LBB6977:
	.loc 38 217 0
	cmp	lr, #3
	bne	.L858
.LVL639:
.LBB6978:
.LBB6979:
	.loc 36 1712 0
	ubfx	r2, ip, #18, #2
.LVL640:
.LBE6979:
.LBE6978:
.LBE6977:
.LBE6976:
	.loc 11 728 0
	cmp	r2, #3
	bne	.L902
.L869:
.LVL641:
.LBB6983:
.LBB6984:
.LBB6985:
.LBB6986:
.LBB6987:
	.loc 36 1672 0
	lsr	ip, ip, #30
.LVL642:
.LBE6987:
.LBE6986:
.LBE6985:
.LBE6984:
.LBB6988:
.LBB6989:
.LBB6990:
.LBB6991:
	.loc 36 1804 0
	mov	r0, #49152
	movt	r0, 65535
.LBE6991:
.LBE6990:
.LBE6989:
.LBE6988:
.LBB6998:
.LBB6999:
	.file 40 "/home/sel4/work/work2/kernel/include/arch/arm/arch/32/mode/machine/hardware.h"
	.loc 40 148 0
	cmp	ip, #2
.LBE6999:
.LBE6998:
.LBB7002:
.LBB6996:
.LBB6993:
.LBB6992:
	.loc 36 1804 0
	and	r1, r0, r1, lsl #10
.LVL643:
.LBE6992:
.LBE6993:
.LBE6996:
.LBE7002:
.LBB7003:
.LBB7000:
	.loc 40 148 0
	beq	.L879
	cmp	ip, #3
	mvneq	r3, #-33554432
.LVL644:
	beq	.L875
	movw	r2, #65535
	cmp	ip, #1
	movw	r3, #4095
	moveq	r3, r2
.LVL645:
.L875:
.LBE7000:
.LBE7003:
	.loc 11 735 0
	and	r0, r4, r3
	add	r0, r0, r1
.LVL646:
.L858:
.LBE6983:
	.loc 11 739 0
	ldr	r4, [sp]
	.cfi_remember_state
	.cfi_restore 4
.LVL647:
	add	sp, sp, #4
	.cfi_def_cfa_offset 4
	ldr	pc, [sp], #4
	.cfi_restore 15
	.cfi_def_cfa_offset 0
.LVL648:
.L900:
	.cfi_restore_state
.LBB7006:
.LBB6974:
.LBB6971:
.LBB6966:
	.loc 36 1587 0
	cmp	r2, #1
	bne	.L903
.LVL649:
.LBE6966:
.LBE6971:
.LBE6974:
.LBE7006:
	.loc 11 723 0
	cmp	r1, #0
	blt	.L884
.LVL650:
.LBB7007:
.LBB6982:
.LBB6980:
.LBB6981:
	.loc 36 1538 0
	ubfx	ip, ip, #20, #2
.LVL651:
.LBE6981:
.LBE6980:
.LBE6982:
.LBE7007:
	.loc 11 728 0
	cmp	ip, #3
	bne	.L904
.L874:
.LVL652:
.LBB7008:
.LBB7004:
.LBB6997:
.LBB6994:
.LBB6995:
	.loc 36 1630 0
	mov	r0, #61440
.LVL653:
	movw	r3, #4095
.LVL654:
	movt	r0, 65535
	and	r1, r0, r1, lsl #8
.LVL655:
	b	.L875
.LVL656:
.L904:
.LBE6995:
.LBE6994:
.LBE6997:
.LBE7004:
.LBE7008:
	.loc 11 728 0
	cmp	r3, #0
	cmpeq	ip, #2
	beq	.L874
.LVL657:
.L884:
	.loc 11 739 0
	ldr	r4, [sp]
	.cfi_remember_state
	.cfi_restore 4
.LVL658:
	add	sp, sp, #4
	.cfi_def_cfa_offset 4
	.loc 11 721 0
	mov	r0, #0
	.loc 11 739 0
	ldr	pc, [sp], #4
	.cfi_restore 15
	.cfi_def_cfa_offset 0
.LVL659:
.L879:
	.cfi_restore_state
.LBB7009:
.LBB7005:
.LBB7001:
	movw	r3, #65535
.LVL660:
	movt	r3, 31
	b	.L875
.LVL661:
.L902:
.LBE7001:
.LBE7005:
.LBE7009:
	.loc 11 728 0
	cmp	r2, #2
	cmpeq	r3, #0
	beq	.L869
	b	.L884
.LVL662:
.L901:
.LBB7010:
.LBB6975:
.LBB6972:
.LBB6970:
	bl	cap_frame_cap_get_capFIsDevice.isra.166.part.167
.LVL663:
.L903:
.LBE6970:
.LBE6972:
.LBB6973:
.LBB6967:
	bl	cap_small_frame_cap_get_capFIsDevice.isra.164.part.165
.LVL664:
.LBE6967:
.LBE6973:
.LBE6975:
.LBE7010:
	.cfi_endproc
.LFE415:
	.size	lookupIPCBuffer, .-lookupIPCBuffer
	.align	2
	.global	handleFaultReply
	.syntax unified
	.arm
	.fpu softvfp
	.type	handleFaultReply, %function
handleFaultReply:
.LFB347:
	.loc 37 120 0
	.cfi_startproc
	@ args = 0, pretend = 0, frame = 0
	@ frame_needed = 0, uses_anonymous_args = 0
.LVL665:
	strd	r4, [sp, #-36]!
	.cfi_def_cfa_offset 36
	.cfi_offset 4, -36
	.cfi_offset 5, -32
	.cfi_offset 6, -28
	.cfi_offset 7, -24
	.cfi_offset 8, -20
	.cfi_offset 9, -16
	.cfi_offset 10, -12
	.cfi_offset 11, -8
	.cfi_offset 14, -4
.LBB7069:
.LBB7070:
	.loc 10 36 0
	ldr	r5, [r1, #4]
.LBE7070:
.LBE7069:
	.loc 37 120 0
	mov	r4, r0
.LVL666:
.LBB7071:
.LBB7072:
	.loc 36 2546 0
	ldr	r0, [r0, #464]
.LVL667:
.LBE7072:
.LBE7071:
	.loc 37 120 0
	strd	r6, [sp, #8]
	strd	r8, [sp, #16]
	strd	r10, [sp, #24]
.LBB7074:
.LBB7075:
.LBB7076:
.LBB7077:
	.loc 30 113 0
	and	r3, r5, #127
.LBE7077:
.LBE7076:
.LBE7075:
.LBE7074:
	.loc 37 120 0
	str	lr, [sp, #32]
.LBB7080:
.LBB7081:
	.loc 30 62 0
	lsr	r5, r5, #12
.LVL668:
.LBE7081:
.LBE7080:
.LBB7082:
.LBB7078:
	.file 41 "/home/sel4/work/work2/kernel/include/api/types.h"
	.loc 41 89 0
	cmp	r3, #120
.LBE7078:
.LBE7082:
.LBB7083:
.LBB7073:
	.loc 36 2546 0
	and	r0, r0, #7
.LBE7073:
.LBE7083:
	.loc 37 120 0
	sub	sp, sp, #4
	.cfi_def_cfa_offset 40
.LBB7084:
.LBB7079:
	.loc 41 89 0
	bls	.L906
.LVL669:
.LBE7079:
.LBE7084:
	.loc 37 127 0
	cmp	r0, #2
	beq	.L908
	cmp	r0, #3
	bne	.L953
	mov	r3, #120
.LVL670:
.L909:
	.loc 37 136 0
	cmp	r3, #3
	movcc	r0, r3
	movcs	r0, #3
.LVL671:
.LBB7085:
.LBB7086:
	.loc 37 84 0
	cmp	r0, #0
	beq	.L923
	ldr	lr, .L955
	mov	r7, #0
.LBB7087:
	.loc 37 85 0
	mov	ip, #17
.LBB7088:
.LBB7089:
	.loc 10 36 0
	ldr	r2, [r1, #8]
	mov	r3, r7
	mov	r9, #1
.LBE7089:
.LBE7088:
.LBE7087:
.LBB7108:
.LBB7109:
	.file 42 "/home/sel4/work/work2/kernel/include/arch/arm/arch/32/mode/kernel/thread.h"
	.loc 42 48 0
	ldr	r8, [r4, #440]
.LVL672:
	movt	r7, 34959
.LBE7109:
.LBE7108:
.LBB7110:
	.loc 37 86 0
	add	r6, lr, #44
.LVL673:
.L929:
.LBE7110:
	.loc 37 84 0
	add	r3, r3, #1
.LBB7111:
.LBB7092:
.LBB7093:
	.loc 10 30 0
	str	r2, [r4, ip, lsl #2]
.LVL674:
.LBE7093:
.LBE7092:
.LBE7111:
	.loc 37 84 0
	cmp	r0, r3
	beq	.L923
.L926:
.LBB7112:
	.loc 37 85 0
	ldr	ip, [lr], #4
.LVL675:
.LBB7095:
.LBB7090:
	.loc 10 36 0
	ldr	r2, [r6, r3, lsl #2]
.LBE7090:
.LBE7095:
.LBB7096:
.LBB7097:
	.loc 42 17 0
	cmp	ip, #16
.LBE7097:
.LBE7096:
.LBB7104:
.LBB7091:
	.loc 10 36 0
	ldr	r2, [r1, r2, lsl #2]
.LVL676:
.LBE7091:
.LBE7104:
.LBB7105:
.LBB7102:
	.loc 42 17 0
	bne	.L929
.LVL677:
.LBB7098:
.LBB7099:
	.loc 42 20 0
	cmp	r8, #0
	beq	.L925
	.loc 42 21 0
	and	r10, r2, #31
	ands	r10, r7, r9, lsl r10
	bne	.L929
.L925:
	.loc 42 38 0
	and	r2, r2, #-134217728
.LVL678:
.LBE7099:
.LBE7098:
.LBE7102:
.LBE7105:
.LBE7112:
	.loc 37 84 0
	add	r3, r3, #1
.LVL679:
.LBB7113:
.LBB7106:
.LBB7103:
.LBB7101:
.LBB7100:
	.loc 42 38 0
	orr	r2, r2, #80
.LVL680:
.LBE7100:
.LBE7101:
.LBE7103:
.LBE7106:
.LBE7113:
	.loc 37 84 0
	cmp	r0, r3
.LBB7114:
.LBB7107:
.LBB7094:
	.loc 10 30 0
	str	r2, [r4, ip, lsl #2]
.LVL681:
.LBE7094:
.LBE7107:
.LBE7114:
	.loc 37 84 0
	bne	.L926
.LVL682:
.L923:
.LBE7086:
.LBE7085:
	.loc 37 137 0
	clz	r0, r5
	lsr	r0, r0, #5
	b	.L905
.LVL683:
.L906:
	.loc 37 127 0
	cmp	r0, #2
	beq	.L911
	cmp	r0, #3
	beq	.L909
.LVL684:
.L953:
	cmp	r0, #1
	beq	.L905
.LVL685:
.LBB7115:
.LBB7116:
	.loc 34 23 0
	sub	r0, r0, #5
	cmp	r0, #2
.LBE7116:
.LBE7115:
	.loc 37 187 0
	movls	r0, #1
.LBB7119:
.LBB7117:
	.loc 34 23 0
	bhi	.L954
.LVL686:
.L905:
.LBE7117:
.LBE7119:
	.loc 37 189 0
	add	sp, sp, #4
	.cfi_remember_state
	.cfi_def_cfa_offset 36
	@ sp needed
	ldrd	r4, [sp]
	.cfi_restore 5
	.cfi_restore 4
.LVL687:
	ldrd	r6, [sp, #8]
	.cfi_restore 7
	.cfi_restore 6
	ldrd	r8, [sp, #16]
	.cfi_restore 9
	.cfi_restore 8
	ldrd	r10, [sp, #24]
	.cfi_restore 11
	.cfi_restore 10
	add	sp, sp, #32
	.cfi_def_cfa_offset 4
	ldr	pc, [sp], #4
	.cfi_restore 15
	.cfi_def_cfa_offset 0
.LVL688:
.L908:
	.cfi_restore_state
.LBB7120:
.LBB7121:
.LBB7122:
.LBB7123:
	.loc 42 48 0
	ldr	r6, [r4, #440]
.LVL689:
.LBE7123:
.LBE7122:
	.loc 37 84 0
	mov	r7, #4
.LBE7121:
.LBE7120:
	.loc 37 132 0
	mov	r8, #12
.LVL690:
.L912:
	ldr	ip, .L955+4
	mov	r9, #0
	mov	r10, #1
.LBB7153:
.LBB7150:
.LBB7125:
.LBB7126:
.LBB7127:
	.loc 10 36 0
	ldr	r3, [r1, #8]
.LVL691:
.LBE7127:
.LBE7126:
	.loc 37 85 0
	mov	r0, r9
	movt	r9, 34959
	add	r2, ip, #4
	add	lr, ip, #100
	add	ip, ip, r7, lsl #2
.LVL692:
.L928:
.LBE7125:
	.loc 37 84 0
	cmp	r2, ip
.LBB7138:
.LBB7129:
.LBB7130:
	.loc 10 30 0
	str	r3, [r4, r0, lsl #2]
.LVL693:
.LBE7130:
.LBE7129:
.LBE7138:
	.loc 37 84 0
	beq	.L913
.LBB7139:
	.loc 37 85 0
	ldr	r0, [r2], #4
.LVL694:
	.loc 37 86 0
	ldr	r3, [lr], #4
.LVL695:
.LBB7131:
.LBB7132:
	.loc 42 17 0
	cmp	r0, #16
.LBE7132:
.LBE7131:
.LBB7136:
.LBB7128:
	.loc 10 36 0
	ldr	r3, [r1, r3, lsl #2]
.LVL696:
.LBE7128:
.LBE7136:
.LBB7137:
.LBB7135:
	.loc 42 17 0
	bne	.L928
.LVL697:
.LBB7133:
.LBB7134:
	.loc 42 20 0
	cmp	r6, #0
	beq	.L915
	.loc 42 21 0
	and	fp, r3, #31
	ands	fp, r9, r10, lsl fp
	bne	.L928
.L915:
	.loc 42 38 0
	and	r3, r3, #-134217728
.LVL698:
	orr	r3, r3, #80
	b	.L928
.LVL699:
.L911:
.LBE7134:
.LBE7133:
.LBE7135:
.LBE7137:
.LBE7139:
.LBE7150:
.LBE7153:
	.loc 37 132 0
	cmp	r3, #12
.LBB7154:
.LBB7151:
.LBB7140:
.LBB7124:
	.loc 42 48 0
	ldr	r6, [r4, #440]
.LBE7124:
.LBE7140:
.LBE7151:
.LBE7154:
	.loc 37 132 0
	movcc	r8, r3
	movcs	r8, #12
.LVL700:
.LBB7155:
.LBB7152:
	.loc 37 84 0
	cmp	r3, #4
	movcc	r7, r3
	movcs	r7, #4
	cmp	r7, #0
	bne	.L912
.LVL701:
.L913:
	.loc 37 90 0
	cmp	r7, r8
	bcs	.L923
.LBB7141:
	.loc 37 91 0
	mov	r0, #0
	bl	lookupIPCBuffer
.LVL702:
	.loc 37 92 0
	cmp	r0, #0
	beq	.L923
	ldr	r3, .L955+8
	lsl	r1, r7, #2
	mov	ip, #0
	add	r8, r0, r8, lsl #2
.LVL703:
	movt	ip, 34959
	add	r0, r0, r1
.LVL704:
	mov	r7, #1
	add	r1, r1, r3
	b	.L921
.LVL705:
.L919:
	.loc 37 93 0
	cmp	r0, r8
.LBB7142:
.LBB7143:
.LBB7144:
	.loc 10 30 0
	str	r3, [r4, r2, lsl #2]
.LVL706:
.LBE7144:
.LBE7143:
.LBE7142:
	.loc 37 93 0
	beq	.L923
.LVL707:
.L921:
.LBB7149:
	.loc 37 94 0
	ldr	r2, [r1, #4]!
.LVL708:
	.loc 37 95 0
	ldr	r3, [r0, #4]!
.LVL709:
.LBB7145:
.LBB7146:
	.loc 42 17 0
	cmp	r2, #16
	bne	.L919
.LVL710:
.LBB7147:
.LBB7148:
	.loc 42 20 0
	cmp	r6, #0
	beq	.L920
	.loc 42 21 0
	and	lr, r3, #31
	ands	lr, ip, r7, lsl lr
	bne	.L919
.L920:
	.loc 42 38 0
	and	r3, r3, #-134217728
.LVL711:
	orr	r3, r3, #80
	b	.L919
.LVL712:
.L954:
.LBE7148:
.LBE7147:
.LBE7146:
.LBE7145:
.LBE7149:
.LBE7141:
.LBE7152:
.LBE7155:
.LBB7156:
.LBB7118:
	bl	Arch_handleFaultReply.part.70
.LVL713:
.L956:
	.align	2
.L955:
	.word	.LANCHOR3+1924
	.word	.LANCHOR3+1872
	.word	.LANCHOR3+1868
.LBE7118:
.LBE7156:
	.cfi_endproc
.LFE347:
	.size	handleFaultReply, .-handleFaultReply
	.align	2
	.global	Arch_sameRegionAs
	.syntax unified
	.arm
	.fpu softvfp
	.type	Arch_sameRegionAs, %function
Arch_sameRegionAs:
.LFB502:
	.loc 13 258 0
	.cfi_startproc
	@ args = 0, pretend = 0, frame = 16
	@ frame_needed = 0, uses_anonymous_args = 0
	str	r4, [sp, #-8]!
	.cfi_def_cfa_offset 8
	.cfi_offset 4, -8
	.cfi_offset 14, -4
	str	lr, [sp, #4]
	sub	sp, sp, #16
	.cfi_def_cfa_offset 24
	.loc 13 258 0
	add	ip, sp, #16
	stm	sp, {r2, r3}
	stmdb	ip, {r0, r1}
	ldr	r1, [sp, #8]
.LVL714:
	mov	r0, r2
.LBB7224:
.LBB7225:
	.loc 36 903 0
	and	r3, r1, #14
	cmp	r3, #14
	.loc 36 905 0
	uxtbeq	r2, r1
	.loc 36 904 0
	andne	r2, r1, #15
.LBE7225:
.LBE7224:
	.loc 13 259 0
	sub	r3, r2, #1
	cmp	r3, #14
	ldrls	pc, [pc, r3, asl #2]
	b	.L1033
.L962:
	.word	.L961
	.word	.L1033
	.word	.L961
	.word	.L1033
	.word	.L963
	.word	.L1033
	.word	.L964
	.word	.L1033
	.word	.L965
	.word	.L1033
	.word	.L966
	.word	.L1033
	.word	.L1033
	.word	.L1033
	.word	.L967
.L967:
.LVL715:
.LBB7226:
.LBB7227:
	.loc 36 903 0
	and	r3, r0, #14
	cmp	r3, #14
	.loc 36 905 0
	uxtbeq	r3, r0
	.loc 36 904 0
	andne	r3, r0, #15
.LBE7227:
.LBE7226:
	.loc 13 302 0
	cmp	r3, #15
	beq	.L1051
.L1033:
	.loc 13 326 0
	mov	r0, #0
.L957:
	.loc 13 327 0
	add	sp, sp, #16
	.cfi_remember_state
	.cfi_def_cfa_offset 8
	@ sp needed
	ldr	r4, [sp]
	.cfi_restore 4
	add	sp, sp, #4
	.cfi_def_cfa_offset 4
	ldr	pc, [sp], #4
	.cfi_restore 15
	.cfi_def_cfa_offset 0
.L961:
	.cfi_restore_state
.LVL716:
.LBB7228:
.LBB7229:
	.loc 36 903 0
	and	r3, r0, #14
	cmp	r3, #14
	.loc 36 905 0
	uxtbeq	r3, r0
	.loc 36 904 0
	andne	r3, r0, #15
.LBE7229:
.LBE7228:
	.loc 13 262 0
	bic	ip, r3, #2
	cmp	ip, #1
	bne	.L1033
.LVL717:
.LBB7230:
.LBB7231:
.LBB7232:
	.loc 38 235 0
	mvn	ip, r2
	ands	ip, ip, #1
	bne	.L1052
	.loc 38 238 0
	cmp	r2, #1
	beq	.L972
	cmp	r2, #3
	bne	.L1053
.LVL718:
.LBB7233:
.LBB7234:
	.loc 36 1801 0
	and	r4, r1, #15
	cmp	r4, #3
	bne	.L984
	.loc 36 1804 0
	mov	lr, #49152
.LBE7234:
.LBE7233:
.LBE7232:
.LBE7231:
.LBB7252:
.LBB7253:
	.loc 38 238 0
	cmp	r3, #1
.LBE7253:
.LBE7252:
.LBB7271:
.LBB7245:
.LBB7237:
.LBB7235:
	.loc 36 1804 0
	movt	lr, 65535
	and	lr, lr, r1, lsl #10
.LVL719:
.LBE7235:
.LBE7237:
.LBE7245:
.LBE7271:
.LBB7272:
.LBB7262:
	.loc 38 238 0
	beq	.L976
	cmp	r3, #3
	ldrne	r2, [sp, #12]
	beq	.L977
.L986:
.LBE7262:
.LBE7272:
.LBB7273:
.LBB7274:
.LBB7275:
.LBB7276:
	.loc 36 1672 0
	lsr	r2, r2, #30
.LBE7276:
.LBE7275:
.LBE7274:
.LBE7273:
.LBB7285:
.LBB7286:
	.loc 40 148 0
	cmp	r2, #2
	moveq	r2, #2097152
	beq	.L975
	cmp	r2, #3
	moveq	r2, #33554432
	beq	.L975
	cmp	r2, #1
	moveq	r2, #65536
	movne	r2, #4096
.L975:
.LBE7286:
.LBE7285:
.LBB7287:
.LBB7288:
	.loc 38 259 0
	cmp	r3, #3
.LBE7288:
.LBE7287:
	.loc 13 267 0
	sub	r3, lr, #1
	ldr	r1, [sp, #4]
	add	r2, r3, r2
.LVL720:
.LBB7293:
.LBB7291:
	.loc 38 259 0
	bne	.L1043
	and	r4, r0, #15
.LVL721:
.LBB7289:
.LBB7290:
	.loc 36 1669 0
	cmp	r4, #3
	bne	.L992
.LVL722:
.L1044:
	.loc 36 1672 0
	lsr	r3, r1, #30
.LBE7290:
.LBE7289:
.LBE7291:
.LBE7293:
.LBB7294:
.LBB7295:
	.loc 40 148 0
	cmp	r3, #2
	moveq	r0, #2097152
	beq	.L990
	cmp	r3, #3
	moveq	r0, #33554432
	beq	.L990
	cmp	r3, #1
	moveq	r0, #65536
	movne	r0, #4096
.LVL723:
.L990:
.LBE7295:
.LBE7294:
	.loc 13 268 0
	sub	r3, ip, #1
	add	r3, r3, r0
.LVL724:
	.loc 13 269 0
	cmp	r2, r3
	cmpcs	r3, ip
	movcs	r3, #1
.LVL725:
	movcc	r3, #0
	cmp	ip, lr
	movcc	r0, #0
	andcs	r0, r3, #1
.LVL726:
	b	.L957
.LVL727:
.L963:
.LBE7230:
.LBB7317:
.LBB7318:
	.loc 36 903 0
	and	r3, r0, #14
	cmp	r3, #14
	.loc 36 905 0
	uxtbeq	r3, r0
	.loc 36 904 0
	andne	r3, r0, #15
.LBE7318:
.LBE7317:
	.loc 13 294 0
	cmp	r3, #5
	bne	.L1033
.LVL728:
.LBB7319:
.LBB7320:
	.loc 36 1847 0
	and	r3, r1, #15
	cmp	r3, #5
	bne	.L1009
.LBE7320:
.LBE7319:
.LBB7323:
.LBB7324:
	and	r3, r0, #15
.LBE7324:
.LBE7323:
.LBB7326:
.LBB7321:
	.loc 36 1850 0
	bic	r2, r1, #15
.LVL729:
.LBE7321:
.LBE7326:
.LBB7327:
.LBB7325:
	.loc 36 1847 0
	cmp	r3, #5
	bne	.L1009
	.loc 36 1850 0
	bic	r1, r0, #15
.LBE7325:
.LBE7327:
	.loc 13 295 0
	sub	r0, r1, r2
	clz	r0, r0
	lsr	r0, r0, #5
	b	.L957
.L964:
.LVL730:
.LBB7328:
.LBB7329:
	.loc 36 903 0
	and	r3, r0, #14
	cmp	r3, #14
	.loc 36 905 0
	uxtbeq	r3, r0
	.loc 36 904 0
	andne	r3, r0, #15
.LBE7329:
.LBE7328:
	.loc 13 274 0
	cmp	r3, #7
	bne	.L1033
.LVL731:
.LBB7330:
.LBB7331:
	.loc 36 1974 0
	and	r3, r1, #15
	cmp	r3, #7
	bne	.L999
.LBE7331:
.LBE7330:
.LBB7335:
.LBB7336:
	and	r2, r0, #15
.LBE7336:
.LBE7335:
.LBB7339:
.LBB7332:
	.loc 36 1977 0
	mov	r3, #64512
.LBE7332:
.LBE7339:
.LBB7340:
.LBB7337:
	.loc 36 1974 0
	cmp	r2, #7
.LBE7337:
.LBE7340:
.LBB7341:
.LBB7333:
	.loc 36 1977 0
	movt	r3, 65535
	and	r2, r1, r3
.LVL732:
.LBE7333:
.LBE7341:
.LBB7342:
.LBB7338:
	.loc 36 1974 0
	beq	.L1046
.L999:
.LBE7338:
.LBE7342:
.LBB7343:
.LBB7334:
	bl	cap_page_table_cap_get_capPTBasePtr.isra.135.part.136
.LVL733:
.L965:
.LBE7334:
.LBE7343:
.LBB7344:
.LBB7345:
	.loc 36 903 0
	and	r3, r0, #14
	cmp	r3, #14
	.loc 36 905 0
	uxtbeq	r3, r0
	.loc 36 904 0
	andne	r3, r0, #15
.LBE7345:
.LBE7344:
	.loc 13 281 0
	cmp	r3, #9
	bne	.L1033
.LVL734:
.LBB7346:
.LBB7347:
	.loc 36 2035 0
	and	r3, r1, #15
	cmp	r3, #9
	bne	.L1003
.LBE7347:
.LBE7346:
.LBB7351:
.LBB7352:
	and	r2, r0, #15
.LBE7352:
.LBE7351:
.LBB7355:
.LBB7348:
	.loc 36 2038 0
	mov	r3, #49152
.LBE7348:
.LBE7355:
.LBB7356:
.LBB7353:
	.loc 36 2035 0
	cmp	r2, #9
.LBE7353:
.LBE7356:
.LBB7357:
.LBB7349:
	.loc 36 2038 0
	movt	r3, 65535
	and	r2, r1, r3
.LVL735:
.LBE7349:
.LBE7357:
.LBB7358:
.LBB7354:
	.loc 36 2035 0
	bne	.L1003
.L1046:
	.loc 36 2038 0
	and	r1, r0, r3
.LBE7354:
.LBE7358:
	.loc 13 282 0
	sub	r0, r1, r2
	clz	r0, r0
	lsr	r0, r0, #5
	b	.L957
.L966:
.LVL736:
.LBB7359:
.LBB7360:
	.loc 36 903 0
	and	r3, r0, #14
	cmp	r3, #14
	.loc 36 905 0
	uxtbeq	r1, r0
	.loc 36 904 0
	andne	r1, r0, #15
.LBE7360:
.LBE7359:
	.loc 13 288 0
	sub	r0, r1, #11
	clz	r0, r0
	lsr	r0, r0, #5
	.loc 13 327 0
	add	sp, sp, #16
	.cfi_remember_state
	.cfi_def_cfa_offset 8
	@ sp needed
	ldr	r4, [sp]
	.cfi_restore 4
	add	sp, sp, #4
	.cfi_def_cfa_offset 4
	ldr	pc, [sp], #4
	.cfi_restore 15
	.cfi_def_cfa_offset 0
.L1051:
	.cfi_restore_state
.LVL737:
.LBB7361:
.LBB7362:
	.loc 36 2221 0
	uxtb	r3, r1
	cmp	r3, #15
	bne	.L1013
.LBE7362:
.LBE7361:
.LBB7365:
.LBB7366:
	uxtb	r3, r0
.LBE7366:
.LBE7365:
.LBB7368:
.LBB7363:
	.loc 36 2224 0
	bic	r1, r1, #255
.LVL738:
.LBE7363:
.LBE7368:
.LBB7369:
.LBB7367:
	.loc 36 2221 0
	cmp	r3, #15
	bne	.L1013
	.loc 36 2224 0
	bic	r0, r0, #255
.LBE7367:
.LBE7369:
	.loc 13 303 0
	sub	r0, r0, r1
	clz	r0, r0
	lsr	r0, r0, #5
	b	.L957
.L972:
.LVL739:
.LBB7370:
.LBB7296:
.LBB7246:
.LBB7238:
.LBB7239:
	.loc 36 1627 0
	and	r4, r1, #15
	cmp	r4, #1
	bne	.L981
	.loc 36 1630 0
	mov	lr, #61440
.LBE7239:
.LBE7238:
.LBE7246:
.LBE7296:
.LBB7297:
.LBB7263:
	.loc 38 238 0
	cmp	r3, #1
.LBE7263:
.LBE7297:
.LBB7298:
.LBB7247:
.LBB7242:
.LBB7240:
	.loc 36 1630 0
	movt	lr, 65535
	and	lr, lr, r1, lsl #8
.LBE7240:
.LBE7242:
.LBE7247:
.LBE7298:
.LBB7299:
.LBB7264:
	.loc 38 238 0
	beq	.L976
	cmp	r3, #3
	bne	.L1054
.L977:
.LBB7254:
.LBB7255:
	.loc 36 1801 0
	and	r4, r0, #15
	cmp	r4, #3
	bne	.L984
.LBE7255:
.LBE7254:
.LBE7264:
.LBE7299:
.LBB7300:
.LBB7279:
	.loc 38 259 0
	cmp	r2, #3
.LBE7279:
.LBE7300:
.LBB7301:
.LBB7265:
.LBB7257:
.LBB7256:
	.loc 36 1804 0
	mov	ip, #49152
	ldr	r2, [sp, #12]
	movt	ip, 65535
	and	ip, ip, r0, lsl #10
.LVL740:
.LBE7256:
.LBE7257:
.LBE7265:
.LBE7301:
.LBB7302:
.LBB7280:
	.loc 38 259 0
	beq	.L1024
.LBE7280:
.LBE7302:
	.loc 13 267 0
	add	r2, lr, #4080
.LVL741:
	ldr	r1, [sp, #4]
	add	r2, r2, #15
.LVL742:
	b	.L1044
.LVL743:
.L1021:
.LBB7303:
.LBB7248:
	.loc 38 246 0
	mov	lr, ip
.L976:
.LBE7248:
.LBE7303:
.LBB7304:
.LBB7266:
.LBB7258:
.LBB7259:
	.loc 36 1627 0
	and	r4, r0, #15
	cmp	r4, #1
	bne	.L981
.LBE7259:
.LBE7258:
.LBE7266:
.LBE7304:
.LBB7305:
.LBB7281:
	.loc 38 259 0
	cmp	r2, #3
.LBE7281:
.LBE7305:
.LBB7306:
.LBB7267:
.LBB7261:
.LBB7260:
	.loc 36 1630 0
	mov	ip, #61440
	ldr	r2, [sp, #12]
	movt	ip, 65535
	and	ip, ip, r0, lsl #8
.LVL744:
.LBE7260:
.LBE7261:
.LBE7267:
.LBE7306:
.LBB7307:
.LBB7282:
	.loc 38 259 0
	beq	.L1024
.LBE7282:
.LBE7307:
	.loc 13 267 0
	add	r2, lr, #4080
.LVL745:
	add	r2, r2, #15
.LVL746:
	mov	r0, #4096
	b	.L990
.LVL747:
.L1024:
	and	r4, r1, #15
.LVL748:
.LBB7308:
.LBB7283:
.LBB7278:
.LBB7277:
	.loc 36 1669 0
	cmp	r4, #3
	beq	.L986
.LVL749:
.L992:
	bl	cap_frame_cap_get_capFSize.part.173
.LVL750:
.L1053:
.LBE7277:
.LBE7278:
.LBE7283:
.LBE7308:
.LBB7309:
.LBB7268:
	.loc 38 238 0
	cmp	r3, #1
	beq	.L1021
	cmp	r3, #3
.LBE7268:
.LBE7309:
.LBB7310:
.LBB7249:
	.loc 38 246 0
	moveq	lr, ip
.LBE7249:
.LBE7310:
.LBB7311:
.LBB7269:
	.loc 38 238 0
	beq	.L977
.LVL751:
.LBE7269:
.LBE7311:
.LBB7312:
.LBB7250:
	.loc 38 246 0
	mov	lr, ip
.LBE7250:
.LBE7312:
.LBB7313:
.LBB7284:
	.loc 38 259 0
	mov	r2, #4096
	b	.L975
.LVL752:
.L1043:
.LBE7284:
.LBE7313:
.LBB7314:
.LBB7292:
	mov	r0, #4096
	b	.L990
.LVL753:
.L1054:
.LBE7292:
.LBE7314:
.LBB7315:
.LBB7270:
	.loc 38 238 0
	mov	r2, #4096
	b	.L975
.L1013:
.LBE7270:
.LBE7315:
.LBE7370:
.LBB7371:
.LBB7364:
	bl	cap_vcpu_cap_get_capVCPUPtr.isra.139.part.140
.LVL754:
.L1003:
.LBE7364:
.LBE7371:
.LBB7372:
.LBB7350:
	bl	cap_page_directory_cap_get_capPDBasePtr.isra.106.part.107
.LVL755:
.L984:
.LBE7350:
.LBE7372:
.LBB7373:
.LBB7316:
.LBB7251:
.LBB7243:
.LBB7236:
	bl	cap_frame_cap_get_capFBasePtr.isra.131.part.132
.LVL756:
.L981:
.LBE7236:
.LBE7243:
.LBB7244:
.LBB7241:
	bl	cap_small_frame_cap_get_capFBasePtr.isra.129.part.130
.LVL757:
.L1052:
.LBE7241:
.LBE7244:
	bl	generic_frame_cap_get_capFBasePtr.isra.133.part.134
.LVL758:
.L1009:
.LBE7251:
.LBE7316:
.LBE7373:
.LBB7374:
.LBB7322:
	bl	cap_asid_pool_cap_get_capASIDPool.isra.137.part.138
.LVL759:
.LBE7322:
.LBE7374:
	.cfi_endproc
.LFE502:
	.size	Arch_sameRegionAs, .-Arch_sameRegionAs
	.align	2
	.global	Arch_sameObjectAs
	.syntax unified
	.arm
	.fpu softvfp
	.type	Arch_sameObjectAs, %function
Arch_sameObjectAs:
.LFB503:
	.loc 13 331 0
	.cfi_startproc
	@ args = 0, pretend = 0, frame = 16
	@ frame_needed = 0, uses_anonymous_args = 0
	str	lr, [sp, #-4]!
	.cfi_def_cfa_offset 4
	.cfi_offset 14, -4
	sub	sp, sp, #20
	.cfi_def_cfa_offset 24
	.loc 13 331 0
	add	ip, sp, #8
	mov	lr, sp
	stm	sp, {r2, r3}
	mov	r3, r2
.LBB7375:
.LBB7376:
	.loc 36 903 0
	and	r2, r0, #14
	cmp	r2, #14
.LBE7376:
.LBE7375:
	.loc 13 331 0
	stm	ip, {r0, r1}
	mov	r1, r0
.LVL760:
.LBB7378:
.LBB7377:
	.loc 36 905 0
	uxtbeq	r2, r0
	.loc 36 904 0
	andne	r2, r0, #15
.LBE7377:
.LBE7378:
	.loc 13 332 0
	cmp	r2, #1
	beq	.L1079
	.loc 13 342 0
	cmp	r2, #3
	beq	.L1080
.L1066:
	.loc 13 354 0
	ldm	lr, {r2, r3}
.LVL761:
	ldm	ip, {r0, r1}
	.loc 13 355 0
	add	sp, sp, #20
	.cfi_remember_state
	.cfi_def_cfa_offset 4
.LVL762:
	@ sp needed
	ldr	lr, [sp], #4
	.cfi_restore 14
	.cfi_def_cfa_offset 0
.LVL763:
	.loc 13 354 0
	b	Arch_sameRegionAs
.LVL764:
.L1080:
	.cfi_restore_state
.LBB7379:
.LBB7380:
	.loc 36 903 0
	and	r2, r3, #14
	cmp	r2, #14
	.loc 36 905 0
	uxtbeq	r2, r3
.LVL765:
	.loc 36 904 0
	andne	r2, r3, #15
.LBE7380:
.LBE7379:
	.loc 13 343 0
	cmp	r2, #3
	beq	.L1081
	.loc 13 350 0
	cmp	r2, #1
	bne	.L1066
.L1077:
	.loc 13 339 0
	mov	r0, #0
.LVL766:
.L1055:
	.loc 13 355 0
	add	sp, sp, #20
	.cfi_remember_state
	.cfi_def_cfa_offset 4
.LVL767:
	@ sp needed
	ldr	pc, [sp], #4
.LVL768:
.L1079:
	.cfi_restore_state
.LBB7381:
.LBB7382:
	.loc 36 903 0
	and	r2, r3, #14
	cmp	r2, #14
	.loc 36 905 0
	uxtbeq	r2, r3
.LVL769:
	.loc 36 904 0
	andne	r2, r3, #15
.LBE7382:
.LBE7381:
	.loc 13 333 0
	cmp	r2, #1
	beq	.L1082
	.loc 13 338 0
	cmp	r2, #3
	bne	.L1066
	b	.L1077
.L1081:
.LVL770:
.LBB7383:
.LBB7384:
	.loc 36 1801 0
	and	r2, r0, #15
	cmp	r2, #3
	bne	.L1071
.LBE7384:
.LBE7383:
.LBB7388:
.LBB7389:
	and	r0, r3, #15
.LBE7389:
.LBE7388:
.LBB7392:
.LBB7385:
	.loc 36 1804 0
	mov	r2, #49152
.LBE7385:
.LBE7392:
.LBB7393:
.LBB7390:
	.loc 36 1801 0
	cmp	r0, #3
.LBE7390:
.LBE7393:
.LBB7394:
.LBB7386:
	.loc 36 1804 0
	movt	r2, 65535
	and	r0, r2, r1, lsl #10
.LVL771:
.LBE7386:
.LBE7394:
.LBB7395:
.LBB7391:
	.loc 36 1801 0
	bne	.L1071
.LVL772:
	.loc 36 1804 0
	and	r2, r2, r3, lsl #10
.LBE7391:
.LBE7395:
	.loc 13 347 0
	cmp	r2, r0
	bne	.L1077
.LVL773:
.LBB7396:
.LBB7397:
	.loc 36 1672 0
	ldr	r0, [sp, #4]
.LBE7397:
.LBE7396:
.LBB7398:
.LBB7399:
	ldr	r2, [sp, #12]
	lsr	r2, r2, #30
.LBE7399:
.LBE7398:
	.loc 13 345 0
	cmp	r2, r0, lsr #30
	bne	.L1077
	mvn	r3, r3, lsr #29
.LVL774:
	eor	r1, r3, r1, lsr #29
	and	r0, r1, #1
	b	.L1055
.LVL775:
.L1082:
.LBB7400:
.LBB7401:
	.loc 36 1627 0
	and	r2, r0, #15
	cmp	r2, #1
	bne	.L1063
.LBE7401:
.LBE7400:
.LBB7405:
.LBB7406:
	and	r0, r3, #15
.LBE7406:
.LBE7405:
.LBB7409:
.LBB7402:
	.loc 36 1630 0
	mov	r2, #61440
.LBE7402:
.LBE7409:
.LBB7410:
.LBB7407:
	.loc 36 1627 0
	cmp	r0, #1
.LBE7407:
.LBE7410:
.LBB7411:
.LBB7403:
	.loc 36 1630 0
	movt	r2, 65535
	and	r0, r2, r1, lsl #8
.LVL776:
.LBE7403:
.LBE7411:
.LBB7412:
.LBB7408:
	.loc 36 1627 0
	bne	.L1063
.LVL777:
	.loc 36 1630 0
	and	r2, r2, r3, lsl #8
.LBE7408:
.LBE7412:
	.loc 13 335 0
	cmp	r2, r0
	bne	.L1077
	mvn	r3, r3
.LVL778:
	lsr	r3, r3, #31
	cmp	r3, r1, lsr #31
	movne	r0, #1
	moveq	r0, #0
	b	.L1055
.LVL779:
.L1071:
.LBB7413:
.LBB7387:
	bl	cap_frame_cap_get_capFBasePtr.isra.131.part.132
.LVL780:
.L1063:
.LBE7387:
.LBE7413:
.LBB7414:
.LBB7404:
	bl	cap_small_frame_cap_get_capFBasePtr.isra.129.part.130
.LVL781:
.LBE7404:
.LBE7414:
	.cfi_endproc
.LFE503:
	.size	Arch_sameObjectAs, .-Arch_sameObjectAs
	.section	.text.unlikely
	.align	2
	.syntax unified
	.arm
	.fpu softvfp
	.type	cap_page_directory_cap_get_capPDIsMapped.isra.175.part.176, %function
cap_page_directory_cap_get_capPDIsMapped.isra.175.part.176:
.LFB1051:
	.loc 36 2047 0
	.cfi_startproc
	@ Volatile: function does not return.
	@ args = 0, pretend = 0, frame = 0
	@ frame_needed = 0, uses_anonymous_args = 0
	.loc 36 2049 0
	movw	r1, #:lower16:.LC37
	movw	r0, #:lower16:.LC48
	ldr	r3, .L1085
	.loc 36 2047 0
	push	{r4, lr}
	.cfi_def_cfa_offset 8
	.cfi_offset 4, -8
	.cfi_offset 14, -4
	.loc 36 2049 0
	movt	r1, #:upper16:.LC37
	movt	r0, #:upper16:.LC48
	movw	r2, #2050
	bl	_assert_fail
.LVL782:
.L1086:
	.align	2
.L1085:
	.word	.LANCHOR3+1984
	.cfi_endproc
.LFE1051:
	.size	cap_page_directory_cap_get_capPDIsMapped.isra.175.part.176, .-cap_page_directory_cap_get_capPDIsMapped.isra.175.part.176
	.text
	.align	2
	.global	isValidVTableRoot
	.syntax unified
	.arm
	.fpu softvfp
	.type	isValidVTableRoot, %function
isValidVTableRoot:
.LFB423:
	.loc 11 1075 0
	.cfi_startproc
	@ args = 0, pretend = 0, frame = 8
	@ frame_needed = 0, uses_anonymous_args = 0
	str	lr, [sp, #-4]!
	.cfi_def_cfa_offset 4
	.cfi_offset 14, -4
	sub	sp, sp, #12
	.cfi_def_cfa_offset 16
	.loc 11 1075 0
	add	r3, sp, #8
	stmdb	r3, {r0, r1}
	ldr	r0, [sp]
.LVL783:
.LBB7415:
.LBB7416:
	.loc 36 903 0
	and	r3, r0, #14
	cmp	r3, #14
	.loc 36 905 0
	uxtbeq	r3, r0
	.loc 36 904 0
	andne	r3, r0, #15
.LBE7416:
.LBE7415:
	.loc 11 1076 0
	cmp	r3, #9
	movne	r0, #0
	beq	.L1094
.L1087:
	.loc 11 1078 0
	add	sp, sp, #12
	.cfi_remember_state
	.cfi_def_cfa_offset 4
	@ sp needed
	ldr	pc, [sp], #4
.L1094:
	.cfi_restore_state
.LVL784:
.LBB7417:
.LBB7418:
	.loc 36 2049 0 discriminator 1
	and	r3, r0, #15
	cmp	r3, #9
.LBE7418:
.LBE7417:
	.loc 11 1076 0 discriminator 1
	ubfxeq	r0, r0, #4, #1
.LBB7420:
.LBB7419:
	.loc 36 2049 0 discriminator 1
	beq	.L1087
	bl	cap_page_directory_cap_get_capPDIsMapped.isra.175.part.176
.LVL785:
.LBE7419:
.LBE7420:
	.cfi_endproc
.LFE423:
	.size	isValidVTableRoot, .-isValidVTableRoot
	.align	2
	.global	pageTableMapped
	.syntax unified
	.arm
	.fpu softvfp
	.type	pageTableMapped, %function
pageTableMapped:
.LFB427:
	.loc 11 1148 0
	.cfi_startproc
	@ args = 0, pretend = 0, frame = 8
	@ frame_needed = 0, uses_anonymous_args = 0
.LVL786:
	strd	r4, [sp, #-12]!
	.cfi_def_cfa_offset 12
	.cfi_offset 4, -12
	.cfi_offset 5, -8
	.cfi_offset 14, -4
	mov	r4, r1
	.loc 11 1153 0
	mov	r1, r0
.LVL787:
	.loc 11 1148 0
	str	lr, [sp, #8]
	sub	sp, sp, #12
	.cfi_def_cfa_offset 24
	.loc 11 1148 0
	mov	r5, r2
	.loc 11 1153 0
	mov	r0, sp
.LVL788:
	bl	findPDForASID
.LVL789:
	.loc 11 1154 0
	ldr	r1, [sp]
	.loc 11 1153 0
	ldr	r0, [sp, #4]
.LVL790:
	.loc 11 1154 0
	cmp	r1, #0
	bne	.L1097
.LVL791:
	.loc 11 1158 0
	lsr	r4, r4, #21
.LVL792:
	.loc 11 1159 0
	ldr	r3, [r0, r4, lsl #3]
.LVL793:
.LBB7429:
.LBB7430:
	.loc 36 2320 0
	and	r2, r3, #3
.LBE7430:
.LBE7429:
	.loc 11 1161 0
	cmp	r2, #3
	bne	.L1098
.LBB7431:
.LBB7432:
	.loc 36 2506 0
	bic	r3, r3, #4080
.LVL794:
	bic	r3, r3, #15
.LBE7432:
.LBE7431:
.LBB7433:
.LBB7434:
	.loc 19 23 0
	add	r3, r3, #-2147483648
.LBE7434:
.LBE7433:
	.loc 11 1155 0
	cmp	r5, r3
	movne	r0, #0
.LVL795:
.L1095:
	.loc 11 1167 0
	add	sp, sp, #12
	.cfi_remember_state
	.cfi_def_cfa_offset 12
	@ sp needed
	ldrd	r4, [sp]
	.cfi_restore 5
	.cfi_restore 4
	add	sp, sp, #8
	.cfi_def_cfa_offset 4
	ldr	pc, [sp], #4
	.cfi_restore 15
	.cfi_def_cfa_offset 0
.LVL796:
.L1097:
	.cfi_restore_state
	.loc 11 1155 0
	mov	r0, #0
.LVL797:
	b	.L1095
.LVL798:
.L1098:
	mov	r0, r1
.LVL799:
	b	.L1095
	.cfi_endproc
.LFE427:
	.size	pageTableMapped, .-pageTableMapped
	.align	2
	.syntax unified
	.arm
	.fpu softvfp
	.type	invalidateASID, %function
invalidateASID:
.LFB428:
	.loc 11 1171 0
	.cfi_startproc
	@ args = 0, pretend = 0, frame = 0
	@ frame_needed = 0, uses_anonymous_args = 0
.LVL800:
	.loc 11 1175 0
	movw	r3, #:lower16:armKSASIDTable
	lsr	r2, r0, #10
	.loc 11 1171 0
	str	r4, [sp, #-8]!
	.cfi_def_cfa_offset 8
	.cfi_offset 4, -8
	.cfi_offset 14, -4
	.loc 11 1175 0
	movt	r3, #:upper16:armKSASIDTable
	ldr	r3, [r3, r2, lsl #2]
.LVL801:
	.loc 11 1171 0
	str	lr, [sp, #4]
	.loc 11 1176 0
	cmp	r3, #0
	beq	.L1105
	.loc 11 1178 0
	ubfx	r0, r0, #0, #10
.LVL802:
	ldr	r3, [r3, r0, lsl #2]
.LVL803:
	.loc 11 1179 0
	cmp	r3, #0
	beq	.L1106
.LVL804:
	.loc 11 1181 0
	add	r3, r3, #12288
.LVL805:
	mov	r2, #0
.LVL806:
	.loc 11 1182 0
	ldr	r4, [sp]
	.cfi_remember_state
	.cfi_restore 4
	add	sp, sp, #4
	.cfi_def_cfa_offset 4
	.loc 11 1181 0
	str	r2, [r3, #4032]
	str	r2, [r3, #4036]
	.loc 11 1182 0
	ldr	pc, [sp], #4
	.cfi_restore 15
	.cfi_def_cfa_offset 0
.LVL807:
.L1105:
	.cfi_restore_state
.LBB7439:
.LBB7440:
	.loc 11 1176 0
	movw	r1, #:lower16:.LC26
	movw	r0, #:lower16:.LC69
.LVL808:
	ldr	r3, .L1107
.LVL809:
	movt	r1, #:upper16:.LC26
	movt	r0, #:upper16:.LC69
	movw	r2, #1176
.LVL810:
	bl	_assert_fail
.LVL811:
.L1106:
.LBE7440:
.LBE7439:
	.loc 11 1179 0 discriminator 1
	movw	r1, #:lower16:.LC26
	movw	r0, #:lower16:.LC70
	ldr	r3, .L1107
.LVL812:
	movt	r1, #:upper16:.LC26
	movt	r0, #:upper16:.LC70
	movw	r2, #1179
.LVL813:
	bl	_assert_fail
.LVL814:
.L1108:
	.align	2
.L1107:
	.word	.LANCHOR3+2028
	.cfi_endproc
.LFE428:
	.size	invalidateASID, .-invalidateASID
	.align	2
	.global	findFreeHWASID
	.syntax unified
	.arm
	.fpu softvfp
	.type	findFreeHWASID, %function
findFreeHWASID:
.LFB431:
	.loc 11 1220 0
	.cfi_startproc
	@ args = 0, pretend = 0, frame = 0
	@ frame_needed = 0, uses_anonymous_args = 0
.LVL815:
	strd	r4, [sp, #-16]!
	.cfi_def_cfa_offset 16
	.cfi_offset 4, -16
	.cfi_offset 5, -12
	.cfi_offset 6, -8
	.cfi_offset 14, -4
	movw	r4, #:lower16:armKSHWASIDTable
	.loc 11 1225 0
	mov	r3, #0
	.loc 11 1220 0
	str	r6, [sp, #8]
	movw	r6, #:lower16:armKSNextASID
	movt	r4, #:upper16:armKSHWASIDTable
	movt	r6, #:upper16:armKSNextASID
	str	lr, [sp, #12]
	ldrb	r5, [r6]	@ zero_extendqisi2
	b	.L1111
.LVL816:
.L1118:
	.loc 11 1225 0
	cmp	r3, #256
	beq	.L1117
.LVL817:
.L1111:
	add	r0, r5, r3
	add	r3, r3, #1
.LVL818:
	uxtb	r0, r0
.LVL819:
	.loc 11 1229 0
	ldr	r2, [r4, r0, lsl #2]
	cmp	r2, #0
	bne	.L1118
.LVL820:
.L1110:
	.loc 11 1247 0
	ldrd	r4, [sp]
	.cfi_remember_state
	.cfi_restore 5
	.cfi_restore 4
	ldr	r6, [sp, #8]
	.cfi_restore 6
	add	sp, sp, #12
	.cfi_def_cfa_offset 4
	ldr	pc, [sp], #4
	.cfi_restore 15
	.cfi_def_cfa_offset 0
.LVL821:
.L1117:
	.cfi_restore_state
.LBB7453:
.LBB7454:
	.loc 11 1237 0
	ldr	r0, [r4, r5, lsl #2]
.LVL822:
	bl	invalidateASID
.LVL823:
.LBB7455:
.LBB7456:
.LBB7457:
.LBB7458:
.LBB7459:
.LBB7460:
	.loc 2 21 0
	.syntax divided
@ 21 "/home/sel4/work/work2/kernel/include/arch/arm/armv/armv7-a/armv/machine.h" 1
	dsb
@ 0 "" 2
	.arm
	.syntax unified
.LBE7460:
.LBE7459:
	.loc 17 226 0
	mov	r2, #0
	.syntax divided
@ 226 "/home/sel4/work/work2/kernel/include/arch/arm/arch/32/mode/machine.h" 1
	mcr p15, 0, r2, c8, c7, 0
@ 0 "" 2
	.arm
	.syntax unified
.LBB7461:
.LBB7462:
	.loc 2 21 0
	.syntax divided
@ 21 "/home/sel4/work/work2/kernel/include/arch/arm/armv/armv7-a/armv/machine.h" 1
	dsb
@ 0 "" 2
	.arm
	.syntax unified
.LBE7462:
.LBE7461:
.LBB7463:
.LBB7464:
	.loc 2 31 0
	.syntax divided
@ 31 "/home/sel4/work/work2/kernel/include/arch/arm/armv/armv7-a/armv/machine.h" 1
	isb
@ 0 "" 2
	.arm
	.syntax unified
.LBE7464:
.LBE7463:
.LBE7458:
.LBE7457:
.LBE7456:
.LBE7455:
	.loc 11 1244 0
	ldrb	r3, [r6]	@ zero_extendqisi2
	mov	r0, r5
	.loc 11 1241 0
	str	r2, [r4, r5, lsl #2]
	.loc 11 1244 0
	add	r3, r3, #1
	strb	r3, [r6]
	b	.L1110
.LBE7454:
.LBE7453:
	.cfi_endproc
.LFE431:
	.size	findFreeHWASID, .-findFreeHWASID
	.align	2
	.syntax unified
	.arm
	.fpu softvfp
	.type	loadHWASID, %function
loadHWASID:
.LFB429:
	.loc 11 1186 0
	.cfi_startproc
	@ args = 0, pretend = 0, frame = 0
	@ frame_needed = 0, uses_anonymous_args = 0
.LVL824:
	.loc 11 1190 0
	movw	r3, #:lower16:armKSASIDTable
	lsr	r2, r1, #10
	.loc 11 1186 0
	str	r4, [sp, #-8]!
	.cfi_def_cfa_offset 8
	.cfi_offset 4, -8
	.cfi_offset 14, -4
	.loc 11 1190 0
	movt	r3, #:upper16:armKSASIDTable
	ldr	r3, [r3, r2, lsl #2]
.LVL825:
	.loc 11 1186 0
	str	lr, [sp, #4]
	.loc 11 1191 0
	cmp	r3, #0
	beq	.L1123
	.loc 11 1193 0
	ubfx	r1, r1, #0, #10
.LVL826:
	ldr	r3, [r3, r1, lsl #2]
.LVL827:
	.loc 11 1194 0
	cmp	r3, #0
	beq	.L1124
	.loc 11 1196 0
	add	r3, r3, #16320
.LVL828:
	.loc 11 1197 0
	ldr	r4, [sp]
	.cfi_remember_state
	.cfi_restore 4
	add	sp, sp, #4
	.cfi_def_cfa_offset 4
	.loc 11 1196 0
	ldrd	r2, [r3]
.LVL829:
	strd	r2, [r0]
	.loc 11 1197 0
	ldr	pc, [sp], #4
	.cfi_restore 15
	.cfi_def_cfa_offset 0
.LVL830:
.L1123:
	.cfi_restore_state
.LBB7467:
.LBB7468:
	.loc 11 1191 0
	movw	r1, #:lower16:.LC26
.LVL831:
	movw	r0, #:lower16:.LC69
.LVL832:
	ldr	r3, .L1125
.LVL833:
	movt	r1, #:upper16:.LC26
	movt	r0, #:upper16:.LC69
	movw	r2, #1191
.LVL834:
	bl	_assert_fail
.LVL835:
.L1124:
.LBE7468:
.LBE7467:
	.loc 11 1194 0 discriminator 1
	movw	r1, #:lower16:.LC26
	movw	r0, #:lower16:.LC70
.LVL836:
	ldr	r3, .L1125
.LVL837:
	movt	r1, #:upper16:.LC26
	movt	r0, #:upper16:.LC70
	movw	r2, #1194
.LVL838:
	bl	_assert_fail
.LVL839:
.L1126:
	.align	2
.L1125:
	.word	.LANCHOR3+2044
	.cfi_endproc
.LFE429:
	.size	loadHWASID, .-loadHWASID
	.align	2
	.syntax unified
	.arm
	.fpu softvfp
	.type	invalidateASIDEntry, %function
invalidateASIDEntry:
.LFB433:
	.loc 11 1268 0
	.cfi_startproc
	@ args = 0, pretend = 0, frame = 8
	@ frame_needed = 0, uses_anonymous_args = 0
.LVL840:
	str	r4, [sp, #-8]!
	.cfi_def_cfa_offset 8
	.cfi_offset 4, -8
	.cfi_offset 14, -4
	.loc 11 1271 0
	mov	r1, r0
	.loc 11 1268 0
	mov	r4, r0
	str	lr, [sp, #4]
	sub	sp, sp, #8
	.cfi_def_cfa_offset 16
	.loc 11 1271 0
	mov	r0, sp
.LVL841:
	bl	loadHWASID
.LVL842:
	ldr	r3, [sp]
.LVL843:
.LBB7469:
.LBB7470:
	.loc 36 2363 0
	ands	r1, r3, #3
	bne	.L1134
.LVL844:
.LBE7470:
.LBE7469:
	.loc 11 1272 0
	tst	r3, #8388608
	beq	.L1129
.LBB7472:
.LBB7473:
	.loc 36 2352 0
	lsr	r3, r3, #24
.LVL845:
.LBE7473:
.LBE7472:
	.loc 11 1273 0
	movw	r2, #:lower16:armKSHWASIDTable
	movt	r2, #:upper16:armKSHWASIDTable
	str	r1, [r2, r3, lsl #2]
.L1129:
	.loc 11 1276 0
	mov	r0, r4
	.loc 11 1277 0
	add	sp, sp, #8
	.cfi_remember_state
	.cfi_def_cfa_offset 8
.LVL846:
	@ sp needed
	ldr	r4, [sp]
	.cfi_restore 4
.LVL847:
	ldr	lr, [sp, #4]
	.cfi_restore 14
	add	sp, sp, #8
	.cfi_def_cfa_offset 0
	.loc 11 1276 0
	b	invalidateASID
.LVL848:
.L1134:
	.cfi_restore_state
.LBB7474:
.LBB7471:
	bl	pde_pde_invalid_get_stored_asid_valid.isra.109.part.110
.LVL849:
.LBE7471:
.LBE7474:
	.cfi_endproc
.LFE433:
	.size	invalidateASIDEntry, .-invalidateASIDEntry
	.align	2
	.global	flushSpace
	.syntax unified
	.arm
	.fpu softvfp
	.type	flushSpace, %function
flushSpace:
.LFB442:
	.loc 11 1625 0
	.cfi_startproc
	@ args = 0, pretend = 0, frame = 8
	@ frame_needed = 0, uses_anonymous_args = 0
.LVL850:
	str	r4, [sp, #-8]!
	.cfi_def_cfa_offset 8
	.cfi_offset 4, -8
	.cfi_offset 14, -4
	.loc 11 1628 0
	mov	r1, r0
	.loc 11 1625 0
	str	lr, [sp, #4]
	sub	sp, sp, #8
	.cfi_def_cfa_offset 16
	.loc 11 1628 0
	mov	r0, sp
.LVL851:
	bl	loadHWASID
.LVL852:
	ldr	r4, [sp]
.LVL853:
.LBB7505:
.LBB7506:
.LBB7507:
.LBB7508:
	.loc 2 21 0
	.syntax divided
@ 21 "/home/sel4/work/work2/kernel/include/arch/arm/armv/armv7-a/armv/machine.h" 1
	dsb
@ 0 "" 2
	.arm
	.syntax unified
.LBE7508:
.LBE7507:
	.loc 16 173 0
	bl	clean_D_PoU
.LVL854:
.LBB7509:
.LBB7510:
	.loc 2 21 0
	.syntax divided
@ 21 "/home/sel4/work/work2/kernel/include/arch/arm/armv/armv7-a/armv/machine.h" 1
	dsb
@ 0 "" 2
	.arm
	.syntax unified
.LBE7510:
.LBE7509:
.LBB7511:
.LBB7512:
	.loc 17 330 0
	mov	r3, #0
	.syntax divided
@ 330 "/home/sel4/work/work2/kernel/include/arch/arm/arch/32/mode/machine.h" 1
	mcr p15, 0, r3, c7, c5, 0
@ 0 "" 2
	.arm
	.syntax unified
.LBB7513:
.LBB7514:
	.loc 2 31 0
	.syntax divided
@ 31 "/home/sel4/work/work2/kernel/include/arch/arm/armv/armv7-a/armv/machine.h" 1
	isb
@ 0 "" 2
	.arm
	.syntax unified
.LBE7514:
.LBE7513:
.LBE7512:
.LBE7511:
.LBB7515:
.LBB7516:
	.loc 2 21 0
	.syntax divided
@ 21 "/home/sel4/work/work2/kernel/include/arch/arm/armv/armv7-a/armv/machine.h" 1
	dsb
@ 0 "" 2
.LVL855:
	.arm
	.syntax unified
.LBE7516:
.LBE7515:
.LBE7506:
.LBE7505:
.LBB7517:
.LBB7518:
	.loc 36 2363 0
	ands	r3, r4, #3
	bne	.L1143
.LVL856:
.LBE7518:
.LBE7517:
	.loc 11 1637 0
	tst	r4, #8388608
	beq	.L1135
.LVL857:
.LBB7520:
.LBB7521:
.LBB7522:
.LBB7523:
.LBB7524:
.LBB7525:
.LBB7526:
.LBB7527:
	.loc 2 21 0
	.syntax divided
@ 21 "/home/sel4/work/work2/kernel/include/arch/arm/armv/armv7-a/armv/machine.h" 1
	dsb
@ 0 "" 2
	.arm
	.syntax unified
.LBE7527:
.LBE7526:
	.loc 17 226 0
	.syntax divided
@ 226 "/home/sel4/work/work2/kernel/include/arch/arm/arch/32/mode/machine.h" 1
	mcr p15, 0, r3, c8, c7, 0
@ 0 "" 2
	.arm
	.syntax unified
.LBB7528:
.LBB7529:
	.loc 2 21 0
	.syntax divided
@ 21 "/home/sel4/work/work2/kernel/include/arch/arm/armv/armv7-a/armv/machine.h" 1
	dsb
@ 0 "" 2
	.arm
	.syntax unified
.LBE7529:
.LBE7528:
.LBB7530:
.LBB7531:
	.loc 2 31 0
	.syntax divided
@ 31 "/home/sel4/work/work2/kernel/include/arch/arm/armv/armv7-a/armv/machine.h" 1
	isb
@ 0 "" 2
.LVL858:
	.arm
	.syntax unified
.L1135:
.LBE7531:
.LBE7530:
.LBE7525:
.LBE7524:
.LBE7523:
.LBE7522:
.LBE7521:
.LBE7520:
	.loc 11 1643 0
	add	sp, sp, #8
	.cfi_remember_state
	.cfi_def_cfa_offset 8
	@ sp needed
	ldr	r4, [sp]
	.cfi_restore 4
.LVL859:
	add	sp, sp, #4
	.cfi_def_cfa_offset 4
	ldr	pc, [sp], #4
	.cfi_restore 15
	.cfi_def_cfa_offset 0
.LVL860:
.L1143:
	.cfi_restore_state
.LBB7532:
.LBB7519:
	bl	pde_pde_invalid_get_stored_asid_valid.isra.109.part.110
.LVL861:
.LBE7519:
.LBE7532:
	.cfi_endproc
.LFE442:
	.size	flushSpace, .-flushSpace
	.align	2
	.global	invalidateTLBByASID
	.syntax unified
	.arm
	.fpu softvfp
	.type	invalidateTLBByASID, %function
invalidateTLBByASID:
.LFB443:
	.loc 11 1647 0
	.cfi_startproc
	@ args = 0, pretend = 0, frame = 8
	@ frame_needed = 0, uses_anonymous_args = 0
.LVL862:
	str	lr, [sp, #-4]!
	.cfi_def_cfa_offset 4
	.cfi_offset 14, -4
	sub	sp, sp, #12
	.cfi_def_cfa_offset 16
	.loc 11 1650 0
	mov	r1, r0
	mov	r0, sp
.LVL863:
	bl	loadHWASID
.LVL864:
	ldr	r3, [sp]
.LVL865:
.LBB7551:
.LBB7552:
	.loc 36 2363 0
	ands	r2, r3, #3
	bne	.L1152
.LVL866:
.LBE7552:
.LBE7551:
	.loc 11 1654 0
	tst	r3, #8388608
	beq	.L1144
.LVL867:
.LBB7554:
.LBB7555:
.LBB7556:
.LBB7557:
.LBB7558:
.LBB7559:
.LBB7560:
.LBB7561:
	.loc 2 21 0
	.syntax divided
@ 21 "/home/sel4/work/work2/kernel/include/arch/arm/armv/armv7-a/armv/machine.h" 1
	dsb
@ 0 "" 2
	.arm
	.syntax unified
.LBE7561:
.LBE7560:
	.loc 17 226 0
	.syntax divided
@ 226 "/home/sel4/work/work2/kernel/include/arch/arm/arch/32/mode/machine.h" 1
	mcr p15, 0, r2, c8, c7, 0
@ 0 "" 2
	.arm
	.syntax unified
.LBB7562:
.LBB7563:
	.loc 2 21 0
	.syntax divided
@ 21 "/home/sel4/work/work2/kernel/include/arch/arm/armv/armv7-a/armv/machine.h" 1
	dsb
@ 0 "" 2
	.arm
	.syntax unified
.LBE7563:
.LBE7562:
.LBB7564:
.LBB7565:
	.loc 2 31 0
	.syntax divided
@ 31 "/home/sel4/work/work2/kernel/include/arch/arm/armv/armv7-a/armv/machine.h" 1
	isb
@ 0 "" 2
.LVL868:
	.arm
	.syntax unified
.L1144:
.LBE7565:
.LBE7564:
.LBE7559:
.LBE7558:
.LBE7557:
.LBE7556:
.LBE7555:
.LBE7554:
	.loc 11 1660 0
	add	sp, sp, #12
	.cfi_remember_state
	.cfi_def_cfa_offset 4
	@ sp needed
	ldr	pc, [sp], #4
.LVL869:
.L1152:
	.cfi_restore_state
.LBB7566:
.LBB7553:
	bl	pde_pde_invalid_get_stored_asid_valid.isra.109.part.110
.LVL870:
.LBE7553:
.LBE7566:
	.cfi_endproc
.LFE443:
	.size	invalidateTLBByASID, .-invalidateTLBByASID
	.section	.text.unlikely
	.align	2
	.syntax unified
	.arm
	.fpu softvfp
	.type	seL4_Fault_VMFault_new.part.187, %function
seL4_Fault_VMFault_new.part.187:
.LFB1062:
	.loc 36 2688 0
	.cfi_startproc
	@ Volatile: function does not return.
	@ args = 0, pretend = 0, frame = 0
	@ frame_needed = 0, uses_anonymous_args = 0
.LVL871:
	.loc 36 2692 0
	movw	r1, #:lower16:.LC37
	movw	r0, #:lower16:.LC71
	ldr	r3, .L1155
	.loc 36 2688 0
	push	{r4, lr}
	.cfi_def_cfa_offset 8
	.cfi_offset 4, -8
	.cfi_offset 14, -4
	.loc 36 2692 0
	movt	r1, #:upper16:.LC37
	movt	r0, #:upper16:.LC71
	movw	r2, #2692
	bl	_assert_fail
.LVL872:
.L1156:
	.align	2
.L1155:
	.word	.LANCHOR3+2056
	.cfi_endproc
.LFE1062:
	.size	seL4_Fault_VMFault_new.part.187, .-seL4_Fault_VMFault_new.part.187
	.align	2
	.syntax unified
	.arm
	.fpu softvfp
	.type	pte_pte_small_ptr_get_contiguous_hint.part.189, %function
pte_pte_small_ptr_get_contiguous_hint.part.189:
.LFB1064:
	.loc 36 807 0
	.cfi_startproc
	@ Volatile: function does not return.
	@ args = 0, pretend = 0, frame = 0
	@ frame_needed = 0, uses_anonymous_args = 0
.LVL873:
	.loc 36 809 0
	movw	r1, #:lower16:.LC37
	movw	r0, #:lower16:.LC72
	ldr	r3, .L1159
	.loc 36 807 0
	push	{r4, lr}
	.cfi_def_cfa_offset 8
	.cfi_offset 4, -8
	.cfi_offset 14, -4
	.loc 36 809 0
	movt	r1, #:upper16:.LC37
	movt	r0, #:upper16:.LC72
	movw	r2, #810
	bl	_assert_fail
.LVL874:
.L1160:
	.align	2
.L1159:
	.word	.LANCHOR3+2080
	.cfi_endproc
.LFE1064:
	.size	pte_pte_small_ptr_get_contiguous_hint.part.189, .-pte_pte_small_ptr_get_contiguous_hint.part.189
	.align	2
	.syntax unified
	.arm
	.fpu softvfp
	.type	pde_pde_section_ptr_get_contiguous_hint.part.192, %function
pde_pde_section_ptr_get_contiguous_hint.part.192:
.LFB1067:
	.loc 36 2417 0
	.cfi_startproc
	@ Volatile: function does not return.
	@ args = 0, pretend = 0, frame = 0
	@ frame_needed = 0, uses_anonymous_args = 0
.LVL875:
	.loc 36 2419 0
	movw	r1, #:lower16:.LC37
	movw	r0, #:lower16:.LC73
	ldr	r3, .L1163
	.loc 36 2417 0
	push	{r4, lr}
	.cfi_def_cfa_offset 8
	.cfi_offset 4, -8
	.cfi_offset 14, -4
	.loc 36 2419 0
	movt	r1, #:upper16:.LC37
	movt	r0, #:upper16:.LC73
	movw	r2, #2420
	bl	_assert_fail
.LVL876:
.L1164:
	.align	2
.L1163:
	.word	.LANCHOR3+2120
	.cfi_endproc
.LFE1067:
	.size	pde_pde_section_ptr_get_contiguous_hint.part.192, .-pde_pde_section_ptr_get_contiguous_hint.part.192
	.align	2
	.syntax unified
	.arm
	.fpu softvfp
	.type	pte_pte_small_get_address.isra.197.part.198, %function
pte_pte_small_get_address.isra.197.part.198:
.LFB1073:
	.loc 36 821 0
	.cfi_startproc
	@ Volatile: function does not return.
	@ args = 0, pretend = 0, frame = 0
	@ frame_needed = 0, uses_anonymous_args = 0
	.loc 36 823 0
	movw	r1, #:lower16:.LC37
	movw	r0, #:lower16:.LC74
	ldr	r3, .L1167
	.loc 36 821 0
	push	{r4, lr}
	.cfi_def_cfa_offset 8
	.cfi_offset 4, -8
	.cfi_offset 14, -4
	.loc 36 823 0
	movt	r1, #:upper16:.LC37
	movt	r0, #:upper16:.LC74
	mov	r2, #824
	bl	_assert_fail
.LVL877:
.L1168:
	.align	2
.L1167:
	.word	.LANCHOR3+2160
	.cfi_endproc
.LFE1073:
	.size	pte_pte_small_get_address.isra.197.part.198, .-pte_pte_small_get_address.isra.197.part.198
	.align	2
	.syntax unified
	.arm
	.fpu softvfp
	.type	pte_pte_small_set_address.part.199, %function
pte_pte_small_set_address.part.199:
.LFB1074:
	.loc 36 835 0
	.cfi_startproc
	@ Volatile: function does not return.
	@ args = 0, pretend = 0, frame = 0
	@ frame_needed = 0, uses_anonymous_args = 0
.LVL878:
	.loc 36 836 0
	movw	r1, #:lower16:.LC37
	movw	r0, #:lower16:.LC74
	ldr	r3, .L1171
	.loc 36 835 0
	push	{r4, lr}
	.cfi_def_cfa_offset 8
	.cfi_offset 4, -8
	.cfi_offset 14, -4
	.loc 36 836 0
	movt	r1, #:upper16:.LC37
	movt	r0, #:upper16:.LC74
	movw	r2, #837
	bl	_assert_fail
.LVL879:
.L1172:
	.align	2
.L1171:
	.word	.LANCHOR3+2188
	.cfi_endproc
.LFE1074:
	.size	pte_pte_small_set_address.part.199, .-pte_pte_small_set_address.part.199
	.align	2
	.syntax unified
	.arm
	.fpu softvfp
	.type	pde_pde_section_get_address.isra.200.part.201, %function
pde_pde_section_get_address.isra.200.part.201:
.LFB1076:
	.loc 36 2431 0
	.cfi_startproc
	@ Volatile: function does not return.
	@ args = 0, pretend = 0, frame = 0
	@ frame_needed = 0, uses_anonymous_args = 0
	.loc 36 2433 0
	movw	r1, #:lower16:.LC37
	movw	r0, #:lower16:.LC75
	ldr	r3, .L1175
	.loc 36 2431 0
	push	{r4, lr}
	.cfi_def_cfa_offset 8
	.cfi_offset 4, -8
	.cfi_offset 14, -4
	.loc 36 2433 0
	movt	r1, #:upper16:.LC37
	movt	r0, #:upper16:.LC75
	movw	r2, #2434
	bl	_assert_fail
.LVL880:
.L1176:
	.align	2
.L1175:
	.word	.LANCHOR3+2216
	.cfi_endproc
.LFE1076:
	.size	pde_pde_section_get_address.isra.200.part.201, .-pde_pde_section_get_address.isra.200.part.201
	.align	2
	.syntax unified
	.arm
	.fpu softvfp
	.type	pde_pde_section_set_address.part.202, %function
pde_pde_section_set_address.part.202:
.LFB1077:
	.loc 36 2445 0
	.cfi_startproc
	@ Volatile: function does not return.
	@ args = 0, pretend = 0, frame = 0
	@ frame_needed = 0, uses_anonymous_args = 0
.LVL881:
	.loc 36 2446 0
	movw	r1, #:lower16:.LC37
	movw	r0, #:lower16:.LC75
	ldr	r3, .L1179
	.loc 36 2445 0
	push	{r4, lr}
	.cfi_def_cfa_offset 8
	.cfi_offset 4, -8
	.cfi_offset 14, -4
	.loc 36 2446 0
	movt	r1, #:upper16:.LC37
	movt	r0, #:upper16:.LC75
	movw	r2, #2447
	bl	_assert_fail
.LVL882:
.L1180:
	.align	2
.L1179:
	.word	.LANCHOR3+2244
	.cfi_endproc
.LFE1077:
	.size	pde_pde_section_set_address.part.202, .-pde_pde_section_set_address.part.202
	.align	2
	.syntax unified
	.arm
	.fpu softvfp
	.type	pde_pde_section_new.part.203, %function
pde_pde_section_new.part.203:
.LFB1078:
	.loc 36 2375 0
	.cfi_startproc
	@ Volatile: function does not return.
	@ args = 0, pretend = 0, frame = 0
	@ frame_needed = 0, uses_anonymous_args = 0
.LVL883:
	.loc 36 2379 0
	movw	r1, #:lower16:.LC37
	movw	r0, #:lower16:.LC51
	ldr	r3, .L1183
	.loc 36 2375 0
	push	{r4, lr}
	.cfi_def_cfa_offset 8
	.cfi_offset 4, -8
	.cfi_offset 14, -4
	.loc 36 2379 0
	movt	r1, #:upper16:.LC37
	movt	r0, #:upper16:.LC51
	movw	r2, #2379
	bl	_assert_fail
.LVL884:
.L1184:
	.align	2
.L1183:
	.word	.LANCHOR3+2272
	.cfi_endproc
.LFE1078:
	.size	pde_pde_section_new.part.203, .-pde_pde_section_new.part.203
	.align	2
	.syntax unified
	.arm
	.fpu softvfp
	.type	seL4_MessageInfo_new.part.205, %function
seL4_MessageInfo_new.part.205:
.LFB1080:
	.loc 30 41 0
	.cfi_startproc
	@ Volatile: function does not return.
	@ args = 0, pretend = 0, frame = 0
	@ frame_needed = 0, uses_anonymous_args = 0
.LVL885:
	.loc 30 45 0
	movw	r1, #:lower16:.LC76
	movw	r0, #:lower16:.LC77
	ldr	r3, .L1187
	.loc 30 41 0
	push	{r4, lr}
	.cfi_def_cfa_offset 8
	.cfi_offset 4, -8
	.cfi_offset 14, -4
	.loc 30 45 0
	movt	r1, #:upper16:.LC76
	movt	r0, #:upper16:.LC77
	mov	r2, #45
	bl	_assert_fail
.LVL886:
.L1188:
	.align	2
.L1187:
	.word	.LANCHOR3+2292
	.cfi_endproc
.LFE1080:
	.size	seL4_MessageInfo_new.part.205, .-seL4_MessageInfo_new.part.205
	.align	2
	.syntax unified
	.arm
	.fpu softvfp
	.type	getSyscallArg.part.206, %function
getSyscallArg.part.206:
.LFB1081:
	.file 43 "/home/sel4/work/work2/kernel/include/api/syscall.h"
	.loc 43 28 0
	.cfi_startproc
	@ Volatile: function does not return.
	@ args = 0, pretend = 0, frame = 0
	@ frame_needed = 0, uses_anonymous_args = 0
.LVL887:
	.loc 43 34 0
	movw	r1, #:lower16:.LC78
	movw	r0, #:lower16:.LC79
	ldr	r3, .L1191
	.loc 43 28 0
	push	{r4, lr}
	.cfi_def_cfa_offset 8
	.cfi_offset 4, -8
	.cfi_offset 14, -4
	.loc 43 34 0
	movt	r1, #:upper16:.LC78
	movt	r0, #:upper16:.LC79
	mov	r2, #34
	bl	_assert_fail
.LVL888:
.L1192:
	.align	2
.L1191:
	.word	.LANCHOR3+2316
	.cfi_endproc
.LFE1081:
	.size	getSyscallArg.part.206, .-getSyscallArg.part.206
	.align	2
	.syntax unified
	.arm
	.fpu softvfp
	.type	cap_untyped_cap_get_capBlockSize.part.207, %function
cap_untyped_cap_get_capBlockSize.part.207:
.LFB1082:
	.loc 36 1005 0
	.cfi_startproc
	@ Volatile: function does not return.
	@ args = 0, pretend = 0, frame = 0
	@ frame_needed = 0, uses_anonymous_args = 0
	.loc 36 1007 0
	movw	r1, #:lower16:.LC37
	movw	r0, #:lower16:.LC55
	ldr	r3, .L1195
	.loc 36 1005 0
	push	{r4, lr}
	.cfi_def_cfa_offset 8
	.cfi_offset 4, -8
	.cfi_offset 14, -4
	.loc 36 1007 0
	movt	r1, #:upper16:.LC37
	movt	r0, #:upper16:.LC55
	mov	r2, #1008
	bl	_assert_fail
.LVL889:
.L1196:
	.align	2
.L1195:
	.word	.LANCHOR3+2332
	.cfi_endproc
.LFE1082:
	.size	cap_untyped_cap_get_capBlockSize.part.207, .-cap_untyped_cap_get_capBlockSize.part.207
	.align	2
	.syntax unified
	.arm
	.fpu softvfp
	.type	cap_asid_pool_cap_new.part.210, %function
cap_asid_pool_cap_new.part.210:
.LFB1085:
	.loc 36 1813 0
	.cfi_startproc
	@ Volatile: function does not return.
	@ args = 0, pretend = 0, frame = 0
	@ frame_needed = 0, uses_anonymous_args = 0
.LVL890:
	.loc 36 1817 0
	movw	r1, #:lower16:.LC37
	movw	r0, #:lower16:.LC80
	ldr	r3, .L1199
	.loc 36 1813 0
	push	{r4, lr}
	.cfi_def_cfa_offset 8
	.cfi_offset 4, -8
	.cfi_offset 14, -4
	.loc 36 1817 0
	movt	r1, #:upper16:.LC37
	movt	r0, #:upper16:.LC80
	movw	r2, #1817
	bl	_assert_fail
.LVL891:
.L1200:
	.align	2
.L1199:
	.word	.LANCHOR3+2368
	.cfi_endproc
.LFE1085:
	.size	cap_asid_pool_cap_new.part.210, .-cap_asid_pool_cap_new.part.210
	.align	2
	.syntax unified
	.arm
	.fpu softvfp
	.type	cap_asid_pool_cap_get_capASIDBase.part.211, %function
cap_asid_pool_cap_get_capASIDBase.part.211:
.LFB1086:
	.loc 36 1831 0
	.cfi_startproc
	@ Volatile: function does not return.
	@ args = 0, pretend = 0, frame = 0
	@ frame_needed = 0, uses_anonymous_args = 0
	.loc 36 1833 0
	movw	r1, #:lower16:.LC37
	movw	r0, #:lower16:.LC62
	ldr	r3, .L1203
	.loc 36 1831 0
	push	{r4, lr}
	.cfi_def_cfa_offset 8
	.cfi_offset 4, -8
	.cfi_offset 14, -4
	.loc 36 1833 0
	movt	r1, #:upper16:.LC37
	movt	r0, #:upper16:.LC62
	movw	r2, #1834
	bl	_assert_fail
.LVL892:
.L1204:
	.align	2
.L1203:
	.word	.LANCHOR3+2392
	.cfi_endproc
.LFE1086:
	.size	cap_asid_pool_cap_get_capASIDBase.part.211, .-cap_asid_pool_cap_get_capASIDBase.part.211
	.text
	.align	2
	.global	Arch_maskCapRights
	.syntax unified
	.arm
	.fpu softvfp
	.type	Arch_maskCapRights, %function
Arch_maskCapRights:
.LFB500:
	.loc 13 129 0
	.cfi_startproc
	@ args = 0, pretend = 0, frame = 8
	@ frame_needed = 0, uses_anonymous_args = 0
.LVL893:
	strd	r4, [sp, #-16]!
	.cfi_def_cfa_offset 16
	.cfi_offset 4, -16
	.cfi_offset 5, -12
	.cfi_offset 6, -8
	.cfi_offset 14, -4
	mov	r5, r0
	str	r6, [sp, #8]
	str	lr, [sp, #12]
	sub	sp, sp, #8
	.cfi_def_cfa_offset 24
	.loc 13 129 0
	add	ip, sp, #8
	stmdb	ip, {r2, r3}
	ldm	sp, {r4, r6}
.LVL894:
.LBB7579:
.LBB7580:
	.loc 36 903 0
	and	r3, r4, #14
	cmp	r3, #14
	.loc 36 905 0
	uxtbeq	r3, r4
.LVL895:
	.loc 36 904 0
	andne	r3, r4, #15
.LBE7580:
.LBE7579:
	.loc 13 130 0
	cmp	r3, #1
	beq	.L1216
	.loc 13 138 0
	cmp	r3, #3
	beq	.L1217
	.loc 13 147 0
	stm	r0, {r4, r6}
.LVL896:
.L1205:
	.loc 13 149 0
	mov	r0, r5
	add	sp, sp, #8
	.cfi_remember_state
	.cfi_def_cfa_offset 16
	@ sp needed
	ldrd	r4, [sp]
	.cfi_restore 5
	.cfi_restore 4
.LVL897:
	ldr	r6, [sp, #8]
	.cfi_restore 6
	add	sp, sp, #12
	.cfi_def_cfa_offset 4
	ldr	pc, [sp], #4
	.cfi_restore 15
	.cfi_def_cfa_offset 0
.LVL898:
.L1216:
	.cfi_restore_state
.LBB7581:
.LBB7582:
.LBB7583:
	.loc 36 1535 0
	and	r3, r4, #15
	cmp	r3, #1
	bne	.L1218
.LBE7583:
.LBE7582:
	.loc 13 135 0
	ubfx	r0, r6, #20, #2
.LVL899:
	bl	maskVMRights
.LVL900:
.LBB7585:
.LBB7586:
	.loc 36 1551 0
	movw	r3, #4092
	tst	r0, r3
	bne	.L1219
.LVL901:
	.loc 36 1554 0
	lsl	r0, r0, #20
.LVL902:
	.loc 36 1553 0
	bic	r6, r6, #3145728
.LVL903:
	.loc 36 1554 0
	and	r0, r0, #3145728
	orr	r6, r0, r6
.LVL904:
	.loc 36 1555 0
	stm	r5, {r4, r6}
	b	.L1205
.LVL905:
.L1217:
.LBE7586:
.LBE7585:
.LBE7581:
.LBB7590:
.LBB7591:
.LBB7592:
	.loc 36 1709 0
	and	r3, r4, #15
	cmp	r3, #3
	bne	.L1220
.LBE7592:
.LBE7591:
	.loc 13 143 0
	ubfx	r0, r6, #18, #2
.LVL906:
	bl	maskVMRights
.LVL907:
.LBB7594:
.LBB7595:
	.loc 36 1725 0
	movw	r3, #16380
	tst	r0, r3
	bne	.L1221
.LVL908:
	.loc 36 1728 0
	lsl	r0, r0, #18
.LVL909:
	.loc 36 1727 0
	bic	r6, r6, #786432
.LVL910:
	.loc 36 1728 0
	and	r0, r0, #786432
	orr	r6, r0, r6
.LVL911:
	.loc 36 1729 0
	stm	r5, {r4, r6}
	b	.L1205
.LVL912:
.L1218:
.LBE7595:
.LBE7594:
.LBE7590:
.LBB7599:
.LBB7588:
.LBB7584:
	bl	cap_small_frame_cap_get_capFVMRights.part.170
.LVL913:
.L1219:
.LBE7584:
.LBE7588:
.LBB7589:
.LBB7587:
	.loc 36 1551 0
	movw	r1, #:lower16:.LC37
	movw	r0, #:lower16:.LC81
.LVL914:
	ldr	r3, .L1222
	movt	r1, #:upper16:.LC37
	movt	r0, #:upper16:.LC81
	movw	r2, #1551
	bl	_assert_fail
.LVL915:
.L1220:
.LBE7587:
.LBE7589:
.LBE7599:
.LBB7600:
.LBB7597:
.LBB7593:
	bl	cap_frame_cap_get_capFVMRights.part.171
.LVL916:
.L1221:
.LBE7593:
.LBE7597:
.LBB7598:
.LBB7596:
	.loc 36 1725 0
	movw	r1, #:lower16:.LC37
	movw	r0, #:lower16:.LC82
.LVL917:
	ldr	r3, .L1222+4
	movt	r1, #:upper16:.LC37
	movt	r0, #:upper16:.LC82
	movw	r2, #1725
	bl	_assert_fail
.LVL918:
.L1223:
	.align	2
.L1222:
	.word	.LANCHOR3+2428
	.word	.LANCHOR3+2468
.LBE7596:
.LBE7598:
.LBE7600:
	.cfi_endproc
.LFE500:
	.size	Arch_maskCapRights, .-Arch_maskCapRights
	.section	.text.unlikely
	.align	2
	.syntax unified
	.arm
	.fpu softvfp
	.type	seL4_Fault_VMFault_get_instructionFault.isra.216.part.217, %function
seL4_Fault_VMFault_get_instructionFault.isra.216.part.217:
.LFB1092:
	.loc 36 2735 0
	.cfi_startproc
	@ Volatile: function does not return.
	@ args = 0, pretend = 0, frame = 0
	@ frame_needed = 0, uses_anonymous_args = 0
	.loc 36 2737 0
	movw	r1, #:lower16:.LC37
	movw	r0, #:lower16:.LC83
	ldr	r3, .L1226
	.loc 36 2735 0
	push	{r4, lr}
	.cfi_def_cfa_offset 8
	.cfi_offset 4, -8
	.cfi_offset 14, -4
	.loc 36 2737 0
	movt	r1, #:upper16:.LC37
	movt	r0, #:upper16:.LC83
	movw	r2, #2738
	bl	_assert_fail
.LVL919:
.L1227:
	.align	2
.L1226:
	.word	.LANCHOR3+2500
	.cfi_endproc
.LFE1092:
	.size	seL4_Fault_VMFault_get_instructionFault.isra.216.part.217, .-seL4_Fault_VMFault_get_instructionFault.isra.216.part.217
	.text
	.align	2
	.global	Arch_setMRs_fault
	.syntax unified
	.arm
	.fpu softvfp
	.type	Arch_setMRs_fault, %function
Arch_setMRs_fault:
.LFB509:
	.loc 34 40 0
	.cfi_startproc
	@ args = 0, pretend = 0, frame = 0
	@ frame_needed = 0, uses_anonymous_args = 0
.LVL920:
	.loc 34 41 0
	cmp	r3, #6
	.loc 34 40 0
	str	r4, [sp, #-8]!
	.cfi_def_cfa_offset 8
	.cfi_offset 4, -8
	.cfi_offset 14, -4
	str	lr, [sp, #4]
	.loc 34 41 0
	beq	.L1230
	cmp	r3, #7
	beq	.L1231
	cmp	r3, #5
	beq	.L1242
	.loc 34 72 0
	movw	r1, #:lower16:.LC30
.LVL921:
	movw	r0, #:lower16:.LC31
.LVL922:
	ldr	r3, .L1247
.LVL923:
	movt	r1, #:upper16:.LC30
	movt	r0, #:upper16:.LC31
	mov	r2, #72
.LVL924:
	bl	_fail
.LVL925:
.L1242:
.LBB7646:
.LBB7647:
.LBB7648:
.LBB7649:
	.loc 10 36 0
	ldr	r2, [r0, #68]
.LVL926:
.LBE7649:
.LBE7648:
.LBE7647:
.LBB7650:
.LBB7651:
	.loc 18 90 0
	.syntax divided
@ 90 "/home/sel4/work/work2/kernel/include/arch/arm/arch/32/mode/machine_pl2.h" 1
	mcr  p15, 0, r2, c7, c8, 0
@ 0 "" 2
	.arm
	.syntax unified
.LBB7652:
.LBB7653:
	.loc 2 31 0
	.syntax divided
@ 31 "/home/sel4/work/work2/kernel/include/arch/arm/armv/armv7-a/armv/machine.h" 1
	isb
@ 0 "" 2
	.arm
	.syntax unified
.LBE7653:
.LBE7652:
	.loc 18 92 0
	.syntax divided
@ 92 "/home/sel4/work/work2/kernel/include/arch/arm/arch/32/mode/machine_pl2.h" 1
	mrrc p15, 0, r3, ip, c7
@ 0 "" 2
.LVL927:
	.arm
	.syntax unified
.LBE7651:
.LBE7650:
	.loc 34 46 0
	bic	r3, r3, #4080
.LVL928:
	ubfx	r2, r2, #0, #12
	bic	r3, r3, #15
	orr	r3, r3, r2
.LBB7654:
.LBB7655:
.LBB7656:
	.loc 10 30 0
	str	r3, [r1, #8]
.LVL929:
.LBE7656:
.LBE7655:
.LBE7654:
.LBE7646:
.LBB7657:
.LBB7658:
	.loc 36 2709 0
	ldr	r3, [r0, #464]
	ldr	r2, [r0, #468]
.LVL930:
	and	r3, r3, #7
	cmp	r3, #5
	bne	.L1243
.LVL931:
.LBE7658:
.LBE7657:
.LBB7662:
.LBB7663:
.LBB7664:
	.loc 10 30 0
	str	r2, [r1, #12]
.LVL932:
	ldr	r3, [r0, #464]
.LVL933:
.LBE7664:
.LBE7663:
.LBE7662:
.LBB7665:
.LBB7666:
	.loc 36 2737 0
	and	r2, r3, #7
.LVL934:
	cmp	r2, #5
	bne	.L1244
.LVL935:
	.loc 36 2740 0
	ubfx	r3, r3, #3, #1
.LBE7666:
.LBE7665:
.LBB7668:
.LBB7669:
.LBB7670:
	.loc 10 30 0
	str	r3, [r1, #16]
.LVL936:
	ldr	r3, [r0, #464]
.LVL937:
.LBE7670:
.LBE7669:
.LBE7668:
.LBB7671:
.LBB7672:
	.loc 36 2723 0
	and	r2, r3, #7
	cmp	r2, #5
	.loc 36 2726 0
	lsreq	r3, r3, #6
.LBE7672:
.LBE7671:
	.loc 34 55 0
	moveq	r0, #4
.LVL938:
.LBB7677:
.LBB7678:
.LBB7679:
	.loc 10 30 0
	streq	r3, [r1, #20]
.LVL939:
.LBE7679:
.LBE7678:
.LBE7677:
.LBB7680:
.LBB7675:
	.loc 36 2723 0
	bne	.L1245
.LVL940:
.L1228:
.LBE7675:
.LBE7680:
	.loc 34 74 0
	ldr	r4, [sp]
	.cfi_remember_state
	.cfi_restore 4
	add	sp, sp, #4
	.cfi_def_cfa_offset 4
	ldr	pc, [sp], #4
	.cfi_restore 15
	.cfi_def_cfa_offset 0
.LVL941:
.L1231:
	.cfi_restore_state
.LBB7681:
.LBB7682:
	.loc 36 2812 0
	ldr	r3, [r0, #464]
.LVL942:
	ldr	r2, [r0, #468]
.LVL943:
	and	r3, r3, #7
	cmp	r3, #7
.LBE7682:
.LBE7681:
	.loc 34 68 0
	moveq	r0, #1
.LVL944:
.LBB7684:
.LBB7685:
.LBB7686:
	.loc 10 30 0
	streq	r2, [r1, #8]
.LVL945:
.LBE7686:
.LBE7685:
.LBE7684:
.LBB7687:
.LBB7683:
	.loc 36 2812 0
	beq	.L1228
	movw	r1, #:lower16:.LC37
.LVL946:
	movw	r0, #:lower16:.LC85
	ldr	r3, .L1247+4
	movt	r1, #:upper16:.LC37
	movt	r0, #:upper16:.LC85
	movw	r2, #2813
.LVL947:
	bl	_assert_fail
.LVL948:
.L1230:
.LBE7683:
.LBE7687:
.LBB7688:
.LBB7689:
	.loc 36 2783 0
	ldr	r3, [r0, #464]
.LVL949:
	ldr	r2, [r0, #468]
.LVL950:
	and	r3, r3, #7
	cmp	r3, #6
	bne	.L1246
.LBE7689:
.LBE7688:
	.loc 34 61 0
	tst	r2, #33554432
	beq	.L1238
.LVL951:
.LBB7691:
.LBB7692:
	.loc 36 2772 0
	lsr	r2, r2, #26
.LVL952:
.LBE7692:
.LBE7691:
	.loc 34 74 0
	ldr	r4, [sp]
	.cfi_remember_state
	.cfi_restore 4
	add	sp, sp, #4
	.cfi_def_cfa_offset 4
	.loc 34 62 0
	mov	r0, #1
.LVL953:
.LBB7693:
.LBB7694:
.LBB7695:
	.loc 10 30 0
	str	r2, [r1, #8]
.LVL954:
.LBE7695:
.LBE7694:
.LBE7693:
	.loc 34 74 0
	ldr	pc, [sp], #4
	.cfi_restore 15
	.cfi_def_cfa_offset 0
.LVL955:
.L1238:
	.cfi_restore_state
.LBB7696:
.LBB7697:
.LBB7698:
	.loc 10 30 0
	mvn	r3, #0
.LBE7698:
.LBE7697:
.LBE7696:
	.loc 34 74 0
	ldr	r4, [sp]
	.cfi_remember_state
	.cfi_restore 4
	add	sp, sp, #4
	.cfi_def_cfa_offset 4
	.loc 34 65 0
	mov	r0, #1
.LVL956:
.LBB7701:
.LBB7700:
.LBB7699:
	.loc 10 30 0
	str	r3, [r1, #8]
.LVL957:
.LBE7699:
.LBE7700:
.LBE7701:
	.loc 34 74 0
	ldr	pc, [sp], #4
	.cfi_restore 15
	.cfi_def_cfa_offset 0
.LVL958:
.L1243:
	.cfi_restore_state
.LBB7702:
.LBB7661:
.LBB7659:
.LBB7660:
	.loc 36 2709 0
	movw	r1, #:lower16:.LC37
.LVL959:
	movw	r0, #:lower16:.LC83
.LVL960:
	ldr	r3, .L1247+8
	movt	r1, #:upper16:.LC37
	movt	r0, #:upper16:.LC83
	movw	r2, #2710
.LVL961:
	bl	_assert_fail
.LVL962:
.L1244:
.LBE7660:
.LBE7659:
.LBE7661:
.LBE7702:
.LBB7703:
.LBB7667:
	bl	seL4_Fault_VMFault_get_instructionFault.isra.216.part.217
.LVL963:
.L1245:
.LBE7667:
.LBE7703:
.LBB7704:
.LBB7676:
.LBB7673:
.LBB7674:
	.loc 36 2723 0
	movw	r1, #:lower16:.LC37
.LVL964:
	movw	r0, #:lower16:.LC83
	ldr	r3, .L1247+12
	movt	r1, #:upper16:.LC37
	movt	r0, #:upper16:.LC83
	movw	r2, #2724
	bl	_assert_fail
.LVL965:
.L1246:
.LBE7674:
.LBE7673:
.LBE7676:
.LBE7704:
.LBB7705:
.LBB7690:
	.loc 36 2783 0
	movw	r1, #:lower16:.LC37
.LVL966:
	movw	r0, #:lower16:.LC84
.LVL967:
	ldr	r3, .L1247+16
	movt	r1, #:upper16:.LC37
	movt	r0, #:upper16:.LC84
	mov	r2, #2784
.LVL968:
	bl	_assert_fail
.LVL969:
.L1248:
	.align	2
.L1247:
	.word	.LANCHOR3+2672
	.word	.LANCHOR3+2640
	.word	.LANCHOR3+2540
	.word	.LANCHOR3+2572
	.word	.LANCHOR3+2600
.LBE7690:
.LBE7705:
	.cfi_endproc
.LFE509:
	.size	Arch_setMRs_fault, .-Arch_setMRs_fault
	.align	2
	.syntax unified
	.arm
	.fpu softvfp
	.type	readBcrCp, %function
readBcrCp:
.LFB551:
	.loc 21 299 0
	.cfi_startproc
	@ args = 0, pretend = 0, frame = 0
	@ frame_needed = 0, uses_anonymous_args = 0
.LVL970:
	sub	r3, r0, #1
	cmp	r3, #14
	ldrls	pc, [pc, r3, asl #2]
	b	.L1250
.L1252:
	.word	.L1251
	.word	.L1253
	.word	.L1254
	.word	.L1255
	.word	.L1256
	.word	.L1257
	.word	.L1258
	.word	.L1259
	.word	.L1260
	.word	.L1261
	.word	.L1262
	.word	.L1263
	.word	.L1264
	.word	.L1265
	.word	.L1266
.L1266:
	.loc 21 310 0
	.syntax divided
@ 310 "/home/sel4/work/work2/kernel/src/arch/arm/machine/debug.c" 1
	mrc  p14, 0, r0, c0, c15, 5
@ 0 "" 2
.LVL971:
	.arm
	.syntax unified
.L1249:
	.loc 21 299 0
	bx	lr
.LVL972:
.L1251:
	.loc 21 299 0 is_stmt 0 discriminator 1
	.syntax divided
@ 299 "/home/sel4/work/work2/kernel/src/arch/arm/machine/debug.c" 1
	mrc  p14, 0, r0, c0, c1, 5
@ 0 "" 2
.LVL973:
	.loc 21 300 0 is_stmt 1 discriminator 1
	.arm
	.syntax unified
	b	.L1249
.LVL974:
.L1253:
	.loc 21 300 0 is_stmt 0
	.syntax divided
@ 300 "/home/sel4/work/work2/kernel/src/arch/arm/machine/debug.c" 1
	mrc  p14, 0, r0, c0, c2, 5
@ 0 "" 2
.LVL975:
	.loc 21 301 0 is_stmt 1
	.arm
	.syntax unified
	b	.L1249
.LVL976:
.L1254:
	.syntax divided
@ 301 "/home/sel4/work/work2/kernel/src/arch/arm/machine/debug.c" 1
	mrc  p14, 0, r0, c0, c3, 5
@ 0 "" 2
.LVL977:
	.arm
	.syntax unified
	b	.L1249
.LVL978:
.L1255:
	.syntax divided
@ 301 "/home/sel4/work/work2/kernel/src/arch/arm/machine/debug.c" 1
	mrc  p14, 0, r0, c0, c4, 5
@ 0 "" 2
.LVL979:
	.loc 21 302 0
	.arm
	.syntax unified
	b	.L1249
.LVL980:
.L1256:
	.syntax divided
@ 302 "/home/sel4/work/work2/kernel/src/arch/arm/machine/debug.c" 1
	mrc  p14, 0, r0, c0, c5, 5
@ 0 "" 2
.LVL981:
	.loc 21 303 0
	.arm
	.syntax unified
	b	.L1249
.LVL982:
.L1257:
	.syntax divided
@ 303 "/home/sel4/work/work2/kernel/src/arch/arm/machine/debug.c" 1
	mrc  p14, 0, r0, c0, c6, 5
@ 0 "" 2
.LVL983:
	.loc 21 304 0
	.arm
	.syntax unified
	b	.L1249
.LVL984:
.L1258:
	.syntax divided
@ 304 "/home/sel4/work/work2/kernel/src/arch/arm/machine/debug.c" 1
	mrc  p14, 0, r0, c0, c7, 5
@ 0 "" 2
.LVL985:
	.arm
	.syntax unified
	b	.L1249
.LVL986:
.L1259:
	.loc 21 305 0
	.syntax divided
@ 305 "/home/sel4/work/work2/kernel/src/arch/arm/machine/debug.c" 1
	mrc  p14, 0, r0, c0, c8, 5
@ 0 "" 2
.LVL987:
	.arm
	.syntax unified
	b	.L1249
.LVL988:
.L1260:
	.syntax divided
@ 305 "/home/sel4/work/work2/kernel/src/arch/arm/machine/debug.c" 1
	mrc  p14, 0, r0, c0, c9, 5
@ 0 "" 2
.LVL989:
	.loc 21 306 0
	.arm
	.syntax unified
	b	.L1249
.LVL990:
.L1261:
	.syntax divided
@ 306 "/home/sel4/work/work2/kernel/src/arch/arm/machine/debug.c" 1
	mrc  p14, 0, r0, c0, c10, 5
@ 0 "" 2
.LVL991:
	.loc 21 307 0
	.arm
	.syntax unified
	b	.L1249
.LVL992:
.L1262:
	.syntax divided
@ 307 "/home/sel4/work/work2/kernel/src/arch/arm/machine/debug.c" 1
	mrc  p14, 0, r0, c0, c11, 5
@ 0 "" 2
.LVL993:
	.arm
	.syntax unified
	b	.L1249
.LVL994:
.L1263:
	.loc 21 308 0
	.syntax divided
@ 308 "/home/sel4/work/work2/kernel/src/arch/arm/machine/debug.c" 1
	mrc  p14, 0, r0, c0, c12, 5
@ 0 "" 2
.LVL995:
	.arm
	.syntax unified
	b	.L1249
.LVL996:
.L1264:
	.syntax divided
@ 308 "/home/sel4/work/work2/kernel/src/arch/arm/machine/debug.c" 1
	mrc  p14, 0, r0, c0, c13, 5
@ 0 "" 2
.LVL997:
	.loc 21 309 0
	.arm
	.syntax unified
	b	.L1249
.LVL998:
.L1265:
	.syntax divided
@ 309 "/home/sel4/work/work2/kernel/src/arch/arm/machine/debug.c" 1
	mrc  p14, 0, r0, c0, c14, 5
@ 0 "" 2
.LVL999:
	.loc 21 310 0
	.arm
	.syntax unified
	b	.L1249
.LVL1000:
.L1250:
	.loc 21 311 0
	cmp	r0, #0
	bne	.L1272
	.loc 21 312 0
	.syntax divided
@ 312 "/home/sel4/work/work2/kernel/src/arch/arm/machine/debug.c" 1
	mrc  p14, 0, r0, c0, c0, 5
@ 0 "" 2
.LVL1001:
	.arm
	.syntax unified
	b	.L1249
.LVL1002:
.L1272:
	.loc 21 311 0 discriminator 1
	movw	r1, #:lower16:.LC86
	movw	r0, #:lower16:.LC87
.LVL1003:
	.loc 21 299 0 discriminator 1
	str	r4, [sp, #-8]!
	.loc 21 311 0 discriminator 1
	ldr	r3, .L1273
	movt	r1, #:upper16:.LC86
	movt	r0, #:upper16:.LC87
	movw	r2, #299
	.loc 21 299 0 discriminator 1
	str	lr, [sp, #4]
	.loc 21 311 0 discriminator 1
	bl	_assert_fail
.LVL1004:
.L1274:
	.align	2
.L1273:
	.word	.LANCHOR3+2692
	.cfi_endproc
.LFE551:
	.size	readBcrCp, .-readBcrCp
	.align	2
	.syntax unified
	.arm
	.fpu softvfp
	.type	writeBcrCp, %function
writeBcrCp:
.LFB555:
	.loc 21 303 0
	.cfi_startproc
	@ args = 0, pretend = 0, frame = 0
	@ frame_needed = 0, uses_anonymous_args = 0
.LVL1005:
	sub	r3, r0, #1
	cmp	r3, #14
	ldrls	pc, [pc, r3, asl #2]
	b	.L1276
.L1278:
	.word	.L1277
	.word	.L1279
	.word	.L1280
	.word	.L1281
	.word	.L1282
	.word	.L1283
	.word	.L1284
	.word	.L1285
	.word	.L1286
	.word	.L1287
	.word	.L1288
	.word	.L1289
	.word	.L1290
	.word	.L1291
	.word	.L1292
.L1292:
.LVL1006:
.LBB7706:
	.loc 21 317 0
	.syntax divided
@ 317 "/home/sel4/work/work2/kernel/src/arch/arm/machine/debug.c" 1
	mcr  p14, 0, r1, c0, c15, 5
@ 0 "" 2
.LVL1007:
	.arm
	.syntax unified
.L1275:
	bx	lr
.L1277:
.LVL1008:
.LBE7706:
.LBB7707:
	.loc 21 303 0 discriminator 1
	.syntax divided
@ 303 "/home/sel4/work/work2/kernel/src/arch/arm/machine/debug.c" 1
	mcr  p14, 0, r1, c0, c1, 5
@ 0 "" 2
	.arm
	.syntax unified
.LBE7707:
	.loc 21 304 0 discriminator 1
	b	.L1275
.LVL1009:
.L1279:
.LBB7708:
	.loc 21 304 0 is_stmt 0
	.syntax divided
@ 304 "/home/sel4/work/work2/kernel/src/arch/arm/machine/debug.c" 1
	mcr  p14, 0, r1, c0, c2, 5
@ 0 "" 2
	.arm
	.syntax unified
.LBE7708:
	.loc 21 305 0 is_stmt 1
	b	.L1275
.LVL1010:
.L1280:
.LBB7709:
	.syntax divided
@ 305 "/home/sel4/work/work2/kernel/src/arch/arm/machine/debug.c" 1
	mcr  p14, 0, r1, c0, c3, 5
@ 0 "" 2
	.arm
	.syntax unified
.LBE7709:
	.loc 21 306 0
	b	.L1275
.LVL1011:
.L1281:
.LBB7710:
	.syntax divided
@ 306 "/home/sel4/work/work2/kernel/src/arch/arm/machine/debug.c" 1
	mcr  p14, 0, r1, c0, c4, 5
@ 0 "" 2
	.arm
	.syntax unified
.LBE7710:
	.loc 21 307 0
	b	.L1275
.LVL1012:
.L1282:
.LBB7711:
	.syntax divided
@ 307 "/home/sel4/work/work2/kernel/src/arch/arm/machine/debug.c" 1
	mcr  p14, 0, r1, c0, c5, 5
@ 0 "" 2
	.arm
	.syntax unified
.LBE7711:
	.loc 21 308 0
	b	.L1275
.LVL1013:
.L1283:
.LBB7712:
	.syntax divided
@ 308 "/home/sel4/work/work2/kernel/src/arch/arm/machine/debug.c" 1
	mcr  p14, 0, r1, c0, c6, 5
@ 0 "" 2
	.arm
	.syntax unified
.LBE7712:
	.loc 21 309 0
	b	.L1275
.LVL1014:
.L1284:
.LBB7713:
	.syntax divided
@ 309 "/home/sel4/work/work2/kernel/src/arch/arm/machine/debug.c" 1
	mcr  p14, 0, r1, c0, c7, 5
@ 0 "" 2
	.arm
	.syntax unified
.LBE7713:
	.loc 21 310 0
	b	.L1275
.LVL1015:
.L1285:
.LBB7714:
	.syntax divided
@ 310 "/home/sel4/work/work2/kernel/src/arch/arm/machine/debug.c" 1
	mcr  p14, 0, r1, c0, c8, 5
@ 0 "" 2
	.arm
	.syntax unified
.LBE7714:
	.loc 21 311 0
	b	.L1275
.LVL1016:
.L1286:
.LBB7715:
	.syntax divided
@ 311 "/home/sel4/work/work2/kernel/src/arch/arm/machine/debug.c" 1
	mcr  p14, 0, r1, c0, c9, 5
@ 0 "" 2
	.arm
	.syntax unified
.LBE7715:
	.loc 21 312 0
	b	.L1275
.LVL1017:
.L1287:
.LBB7716:
	.syntax divided
@ 312 "/home/sel4/work/work2/kernel/src/arch/arm/machine/debug.c" 1
	mcr  p14, 0, r1, c0, c10, 5
@ 0 "" 2
	.arm
	.syntax unified
.LBE7716:
	.loc 21 313 0
	b	.L1275
.LVL1018:
.L1288:
.LBB7717:
	.syntax divided
@ 313 "/home/sel4/work/work2/kernel/src/arch/arm/machine/debug.c" 1
	mcr  p14, 0, r1, c0, c11, 5
@ 0 "" 2
	.arm
	.syntax unified
.LBE7717:
	.loc 21 314 0
	b	.L1275
.LVL1019:
.L1289:
.LBB7718:
	.syntax divided
@ 314 "/home/sel4/work/work2/kernel/src/arch/arm/machine/debug.c" 1
	mcr  p14, 0, r1, c0, c12, 5
@ 0 "" 2
	.arm
	.syntax unified
.LBE7718:
	.loc 21 315 0
	b	.L1275
.LVL1020:
.L1290:
.LBB7719:
	.syntax divided
@ 315 "/home/sel4/work/work2/kernel/src/arch/arm/machine/debug.c" 1
	mcr  p14, 0, r1, c0, c13, 5
@ 0 "" 2
	.arm
	.syntax unified
.LBE7719:
	.loc 21 316 0
	b	.L1275
.LVL1021:
.L1291:
.LBB7720:
	.syntax divided
@ 316 "/home/sel4/work/work2/kernel/src/arch/arm/machine/debug.c" 1
	mcr  p14, 0, r1, c0, c14, 5
@ 0 "" 2
	.arm
	.syntax unified
.LBE7720:
	.loc 21 317 0
	b	.L1275
.LVL1022:
.L1276:
	.loc 21 318 0
	cmp	r0, #0
	bne	.L1298
.LVL1023:
.LBB7721:
	.loc 21 319 0
	.syntax divided
@ 319 "/home/sel4/work/work2/kernel/src/arch/arm/machine/debug.c" 1
	mcr  p14, 0, r1, c0, c0, 5
@ 0 "" 2
	.arm
	.syntax unified
.LBE7721:
	.loc 21 320 0
	b	.L1275
.LVL1024:
.L1298:
	.loc 21 318 0 discriminator 1
	movw	r1, #:lower16:.LC86
.LVL1025:
	movw	r0, #:lower16:.LC87
.LVL1026:
	.loc 21 303 0 discriminator 1
	str	r4, [sp, #-8]!
	.loc 21 318 0 discriminator 1
	ldr	r3, .L1299
	movt	r1, #:upper16:.LC86
	movt	r0, #:upper16:.LC87
	movw	r2, #303
	.loc 21 303 0 discriminator 1
	str	lr, [sp, #4]
	.loc 21 318 0 discriminator 1
	bl	_assert_fail
.LVL1027:
.L1300:
	.align	2
.L1299:
	.word	.LANCHOR3+2704
	.cfi_endproc
.LFE555:
	.size	writeBcrCp, .-writeBcrCp
	.align	2
	.syntax unified
	.arm
	.fpu softvfp
	.type	readWcrCp, %function
readWcrCp:
.LFB553:
	.loc 21 301 0
	.cfi_startproc
	@ args = 0, pretend = 0, frame = 0
	@ frame_needed = 0, uses_anonymous_args = 0
.LVL1028:
	sub	r3, r0, #1
	cmp	r3, #14
	ldrls	pc, [pc, r3, asl #2]
	b	.L1302
.L1304:
	.word	.L1303
	.word	.L1305
	.word	.L1306
	.word	.L1307
	.word	.L1308
	.word	.L1309
	.word	.L1310
	.word	.L1311
	.word	.L1312
	.word	.L1313
	.word	.L1314
	.word	.L1315
	.word	.L1316
	.word	.L1317
	.word	.L1318
.L1318:
	.loc 21 312 0
	.syntax divided
@ 312 "/home/sel4/work/work2/kernel/src/arch/arm/machine/debug.c" 1
	mrc  p14, 0, r0, c0, c15, 7
@ 0 "" 2
.LVL1029:
	.arm
	.syntax unified
.L1301:
	.loc 21 301 0
	bx	lr
.LVL1030:
.L1303:
	.loc 21 301 0 is_stmt 0 discriminator 1
	.syntax divided
@ 301 "/home/sel4/work/work2/kernel/src/arch/arm/machine/debug.c" 1
	mrc  p14, 0, r0, c0, c1, 7
@ 0 "" 2
.LVL1031:
	.loc 21 302 0 is_stmt 1 discriminator 1
	.arm
	.syntax unified
	b	.L1301
.LVL1032:
.L1305:
	.loc 21 302 0 is_stmt 0
	.syntax divided
@ 302 "/home/sel4/work/work2/kernel/src/arch/arm/machine/debug.c" 1
	mrc  p14, 0, r0, c0, c2, 7
@ 0 "" 2
.LVL1033:
	.loc 21 303 0 is_stmt 1
	.arm
	.syntax unified
	b	.L1301
.LVL1034:
.L1306:
	.syntax divided
@ 303 "/home/sel4/work/work2/kernel/src/arch/arm/machine/debug.c" 1
	mrc  p14, 0, r0, c0, c3, 7
@ 0 "" 2
.LVL1035:
	.arm
	.syntax unified
	b	.L1301
.LVL1036:
.L1307:
	.syntax divided
@ 303 "/home/sel4/work/work2/kernel/src/arch/arm/machine/debug.c" 1
	mrc  p14, 0, r0, c0, c4, 7
@ 0 "" 2
.LVL1037:
	.loc 21 304 0
	.arm
	.syntax unified
	b	.L1301
.LVL1038:
.L1308:
	.syntax divided
@ 304 "/home/sel4/work/work2/kernel/src/arch/arm/machine/debug.c" 1
	mrc  p14, 0, r0, c0, c5, 7
@ 0 "" 2
.LVL1039:
	.loc 21 305 0
	.arm
	.syntax unified
	b	.L1301
.LVL1040:
.L1309:
	.syntax divided
@ 305 "/home/sel4/work/work2/kernel/src/arch/arm/machine/debug.c" 1
	mrc  p14, 0, r0, c0, c6, 7
@ 0 "" 2
.LVL1041:
	.loc 21 306 0
	.arm
	.syntax unified
	b	.L1301
.LVL1042:
.L1310:
	.syntax divided
@ 306 "/home/sel4/work/work2/kernel/src/arch/arm/machine/debug.c" 1
	mrc  p14, 0, r0, c0, c7, 7
@ 0 "" 2
.LVL1043:
	.arm
	.syntax unified
	b	.L1301
.LVL1044:
.L1311:
	.loc 21 307 0
	.syntax divided
@ 307 "/home/sel4/work/work2/kernel/src/arch/arm/machine/debug.c" 1
	mrc  p14, 0, r0, c0, c8, 7
@ 0 "" 2
.LVL1045:
	.arm
	.syntax unified
	b	.L1301
.LVL1046:
.L1312:
	.syntax divided
@ 307 "/home/sel4/work/work2/kernel/src/arch/arm/machine/debug.c" 1
	mrc  p14, 0, r0, c0, c9, 7
@ 0 "" 2
.LVL1047:
	.loc 21 308 0
	.arm
	.syntax unified
	b	.L1301
.LVL1048:
.L1313:
	.syntax divided
@ 308 "/home/sel4/work/work2/kernel/src/arch/arm/machine/debug.c" 1
	mrc  p14, 0, r0, c0, c10, 7
@ 0 "" 2
.LVL1049:
	.loc 21 309 0
	.arm
	.syntax unified
	b	.L1301
.LVL1050:
.L1314:
	.syntax divided
@ 309 "/home/sel4/work/work2/kernel/src/arch/arm/machine/debug.c" 1
	mrc  p14, 0, r0, c0, c11, 7
@ 0 "" 2
.LVL1051:
	.arm
	.syntax unified
	b	.L1301
.LVL1052:
.L1315:
	.loc 21 310 0
	.syntax divided
@ 310 "/home/sel4/work/work2/kernel/src/arch/arm/machine/debug.c" 1
	mrc  p14, 0, r0, c0, c12, 7
@ 0 "" 2
.LVL1053:
	.arm
	.syntax unified
	b	.L1301
.LVL1054:
.L1316:
	.syntax divided
@ 310 "/home/sel4/work/work2/kernel/src/arch/arm/machine/debug.c" 1
	mrc  p14, 0, r0, c0, c13, 7
@ 0 "" 2
.LVL1055:
	.loc 21 311 0
	.arm
	.syntax unified
	b	.L1301
.LVL1056:
.L1317:
	.syntax divided
@ 311 "/home/sel4/work/work2/kernel/src/arch/arm/machine/debug.c" 1
	mrc  p14, 0, r0, c0, c14, 7
@ 0 "" 2
.LVL1057:
	.loc 21 312 0
	.arm
	.syntax unified
	b	.L1301
.LVL1058:
.L1302:
	.loc 21 313 0
	cmp	r0, #0
	bne	.L1324
	.loc 21 314 0
	.syntax divided
@ 314 "/home/sel4/work/work2/kernel/src/arch/arm/machine/debug.c" 1
	mrc  p14, 0, r0, c0, c0, 7
@ 0 "" 2
.LVL1059:
	.arm
	.syntax unified
	b	.L1301
.LVL1060:
.L1324:
	.loc 21 313 0 discriminator 1
	movw	r1, #:lower16:.LC86
	movw	r0, #:lower16:.LC87
.LVL1061:
	.loc 21 301 0 discriminator 1
	str	r4, [sp, #-8]!
	.loc 21 313 0 discriminator 1
	ldr	r3, .L1325
	movt	r1, #:upper16:.LC86
	movt	r0, #:upper16:.LC87
	movw	r2, #301
	.loc 21 301 0 discriminator 1
	str	lr, [sp, #4]
	.loc 21 313 0 discriminator 1
	bl	_assert_fail
.LVL1062:
.L1326:
	.align	2
.L1325:
	.word	.LANCHOR3+2716
	.cfi_endproc
.LFE553:
	.size	readWcrCp, .-readWcrCp
	.align	2
	.syntax unified
	.arm
	.fpu softvfp
	.type	writeWcrCp, %function
writeWcrCp:
.LFB557:
	.loc 21 305 0
	.cfi_startproc
	@ args = 0, pretend = 0, frame = 0
	@ frame_needed = 0, uses_anonymous_args = 0
.LVL1063:
	sub	r3, r0, #1
	cmp	r3, #14
	ldrls	pc, [pc, r3, asl #2]
	b	.L1328
.L1330:
	.word	.L1329
	.word	.L1331
	.word	.L1332
	.word	.L1333
	.word	.L1334
	.word	.L1335
	.word	.L1336
	.word	.L1337
	.word	.L1338
	.word	.L1339
	.word	.L1340
	.word	.L1341
	.word	.L1342
	.word	.L1343
	.word	.L1344
.L1344:
.LVL1064:
.LBB7722:
	.loc 21 319 0
	.syntax divided
@ 319 "/home/sel4/work/work2/kernel/src/arch/arm/machine/debug.c" 1
	mcr  p14, 0, r1, c0, c15, 7
@ 0 "" 2
.LVL1065:
	.arm
	.syntax unified
.L1327:
	bx	lr
.L1329:
.LVL1066:
.LBE7722:
.LBB7723:
	.loc 21 305 0 discriminator 1
	.syntax divided
@ 305 "/home/sel4/work/work2/kernel/src/arch/arm/machine/debug.c" 1
	mcr  p14, 0, r1, c0, c1, 7
@ 0 "" 2
	.arm
	.syntax unified
.LBE7723:
	.loc 21 306 0 discriminator 1
	b	.L1327
.LVL1067:
.L1331:
.LBB7724:
	.loc 21 306 0 is_stmt 0
	.syntax divided
@ 306 "/home/sel4/work/work2/kernel/src/arch/arm/machine/debug.c" 1
	mcr  p14, 0, r1, c0, c2, 7
@ 0 "" 2
	.arm
	.syntax unified
.LBE7724:
	.loc 21 307 0 is_stmt 1
	b	.L1327
.LVL1068:
.L1332:
.LBB7725:
	.syntax divided
@ 307 "/home/sel4/work/work2/kernel/src/arch/arm/machine/debug.c" 1
	mcr  p14, 0, r1, c0, c3, 7
@ 0 "" 2
	.arm
	.syntax unified
.LBE7725:
	.loc 21 308 0
	b	.L1327
.LVL1069:
.L1333:
.LBB7726:
	.syntax divided
@ 308 "/home/sel4/work/work2/kernel/src/arch/arm/machine/debug.c" 1
	mcr  p14, 0, r1, c0, c4, 7
@ 0 "" 2
	.arm
	.syntax unified
.LBE7726:
	.loc 21 309 0
	b	.L1327
.LVL1070:
.L1334:
.LBB7727:
	.syntax divided
@ 309 "/home/sel4/work/work2/kernel/src/arch/arm/machine/debug.c" 1
	mcr  p14, 0, r1, c0, c5, 7
@ 0 "" 2
	.arm
	.syntax unified
.LBE7727:
	.loc 21 310 0
	b	.L1327
.LVL1071:
.L1335:
.LBB7728:
	.syntax divided
@ 310 "/home/sel4/work/work2/kernel/src/arch/arm/machine/debug.c" 1
	mcr  p14, 0, r1, c0, c6, 7
@ 0 "" 2
	.arm
	.syntax unified
.LBE7728:
	.loc 21 311 0
	b	.L1327
.LVL1072:
.L1336:
.LBB7729:
	.syntax divided
@ 311 "/home/sel4/work/work2/kernel/src/arch/arm/machine/debug.c" 1
	mcr  p14, 0, r1, c0, c7, 7
@ 0 "" 2
	.arm
	.syntax unified
.LBE7729:
	.loc 21 312 0
	b	.L1327
.LVL1073:
.L1337:
.LBB7730:
	.syntax divided
@ 312 "/home/sel4/work/work2/kernel/src/arch/arm/machine/debug.c" 1
	mcr  p14, 0, r1, c0, c8, 7
@ 0 "" 2
	.arm
	.syntax unified
.LBE7730:
	.loc 21 313 0
	b	.L1327
.LVL1074:
.L1338:
.LBB7731:
	.syntax divided
@ 313 "/home/sel4/work/work2/kernel/src/arch/arm/machine/debug.c" 1
	mcr  p14, 0, r1, c0, c9, 7
@ 0 "" 2
	.arm
	.syntax unified
.LBE7731:
	.loc 21 314 0
	b	.L1327
.LVL1075:
.L1339:
.LBB7732:
	.syntax divided
@ 314 "/home/sel4/work/work2/kernel/src/arch/arm/machine/debug.c" 1
	mcr  p14, 0, r1, c0, c10, 7
@ 0 "" 2
	.arm
	.syntax unified
.LBE7732:
	.loc 21 315 0
	b	.L1327
.LVL1076:
.L1340:
.LBB7733:
	.syntax divided
@ 315 "/home/sel4/work/work2/kernel/src/arch/arm/machine/debug.c" 1
	mcr  p14, 0, r1, c0, c11, 7
@ 0 "" 2
	.arm
	.syntax unified
.LBE7733:
	.loc 21 316 0
	b	.L1327
.LVL1077:
.L1341:
.LBB7734:
	.syntax divided
@ 316 "/home/sel4/work/work2/kernel/src/arch/arm/machine/debug.c" 1
	mcr  p14, 0, r1, c0, c12, 7
@ 0 "" 2
	.arm
	.syntax unified
.LBE7734:
	.loc 21 317 0
	b	.L1327
.LVL1078:
.L1342:
.LBB7735:
	.syntax divided
@ 317 "/home/sel4/work/work2/kernel/src/arch/arm/machine/debug.c" 1
	mcr  p14, 0, r1, c0, c13, 7
@ 0 "" 2
	.arm
	.syntax unified
.LBE7735:
	.loc 21 318 0
	b	.L1327
.LVL1079:
.L1343:
.LBB7736:
	.syntax divided
@ 318 "/home/sel4/work/work2/kernel/src/arch/arm/machine/debug.c" 1
	mcr  p14, 0, r1, c0, c14, 7
@ 0 "" 2
	.arm
	.syntax unified
.LBE7736:
	.loc 21 319 0
	b	.L1327
.LVL1080:
.L1328:
	.loc 21 320 0
	cmp	r0, #0
	bne	.L1350
.LVL1081:
.LBB7737:
	.loc 21 321 0
	.syntax divided
@ 321 "/home/sel4/work/work2/kernel/src/arch/arm/machine/debug.c" 1
	mcr  p14, 0, r1, c0, c0, 7
@ 0 "" 2
	.arm
	.syntax unified
.LBE7737:
	.loc 21 322 0
	b	.L1327
.LVL1082:
.L1350:
	.loc 21 320 0 discriminator 1
	movw	r1, #:lower16:.LC86
.LVL1083:
	movw	r0, #:lower16:.LC87
.LVL1084:
	.loc 21 305 0 discriminator 1
	str	r4, [sp, #-8]!
	.loc 21 320 0 discriminator 1
	ldr	r3, .L1351
	movt	r1, #:upper16:.LC86
	movt	r0, #:upper16:.LC87
	movw	r2, #305
	.loc 21 305 0 discriminator 1
	str	lr, [sp, #4]
	.loc 21 320 0 discriminator 1
	bl	_assert_fail
.LVL1085:
.L1352:
	.align	2
.L1351:
	.word	.LANCHOR3+2728
	.cfi_endproc
.LFE557:
	.size	writeWcrCp, .-writeWcrCp
	.align	2
	.global	loadAllDisabledBreakpointState
	.syntax unified
	.arm
	.fpu softvfp
	.type	loadAllDisabledBreakpointState, %function
loadAllDisabledBreakpointState:
.LFB568:
	.loc 21 1208 0
	.cfi_startproc
	@ args = 0, pretend = 0, frame = 0
	@ frame_needed = 0, uses_anonymous_args = 0
.LVL1086:
	strd	r4, [sp, #-16]!
	.cfi_def_cfa_offset 16
	.cfi_offset 4, -16
	.cfi_offset 5, -12
	.cfi_offset 6, -8
	.cfi_offset 14, -4
	.loc 21 1221 0
	mov	r4, #0
	.loc 21 1208 0
	str	r6, [sp, #8]
	str	lr, [sp, #12]
.LVL1087:
.L1354:
	.loc 21 1222 0 discriminator 3
	uxth	r5, r4
	.loc 21 1221 0 discriminator 3
	add	r4, r4, #1
.LVL1088:
	.loc 21 1222 0 discriminator 3
	mov	r0, r5
	bl	readBcrCp
.LVL1089:
	bic	r1, r0, #1
	mov	r0, r5
	bl	writeBcrCp
.LVL1090:
	.loc 21 1221 0 discriminator 3
	cmp	r4, #6
	bne	.L1354
	mov	r4, #0
.LVL1091:
.L1355:
	.loc 21 1225 0 discriminator 3
	uxth	r5, r4
	.loc 21 1224 0 discriminator 3
	add	r4, r4, #1
.LVL1092:
	.loc 21 1225 0 discriminator 3
	mov	r0, r5
	bl	readWcrCp
.LVL1093:
	bic	r1, r0, #1
	mov	r0, r5
	bl	writeWcrCp
.LVL1094:
	.loc 21 1224 0 discriminator 3
	cmp	r4, #4
	bne	.L1355
	.loc 21 1227 0
	ldrd	r4, [sp]
	.cfi_restore 5
	.cfi_restore 4
.LVL1095:
	ldr	r6, [sp, #8]
	.cfi_restore 6
	add	sp, sp, #12
	.cfi_def_cfa_offset 4
	ldr	pc, [sp], #4
	.cfi_restore 15
	.cfi_def_cfa_offset 0
	.cfi_endproc
.LFE568:
	.size	loadAllDisabledBreakpointState, .-loadAllDisabledBreakpointState
	.align	2
	.syntax unified
	.arm
	.fpu softvfp
	.type	vcpu_disable, %function
vcpu_disable:
.LFB628:
	.loc 25 437 0
	.cfi_startproc
	@ args = 0, pretend = 0, frame = 0
	@ frame_needed = 0, uses_anonymous_args = 0
.LVL1096:
	str	r4, [sp, #-8]!
	.cfi_def_cfa_offset 8
	.cfi_offset 4, -8
	.cfi_offset 14, -4
	str	lr, [sp, #4]
.LBB7738:
.LBB7739:
	.loc 2 21 0
	.syntax divided
@ 21 "/home/sel4/work/work2/kernel/include/arch/arm/armv/armv7-a/armv/machine.h" 1
	dsb
@ 0 "" 2
	.arm
	.syntax unified
.LBE7739:
.LBE7738:
	.loc 25 441 0
	cmp	r0, #0
	beq	.L1360
.LBB7740:
.LBB7741:
	.loc 25 330 0
	movw	r3, #24831
	movt	r3, 65520
	ldr	r3, [r3, #-255]
.LBE7741:
.LBE7740:
.LBB7742:
.LBB7743:
	.loc 18 128 0
	.syntax divided
@ 128 "/home/sel4/work/work2/kernel/include/arch/arm/arch/32/mode/machine_pl2.h" 1
	mrc p15, 0, r2, c1, c0, 0
@ 0 "" 2
	.arm
	.syntax unified
.LBE7743:
.LBE7742:
	.loc 25 445 0
	str	r2, [r0, #4]
	.loc 25 444 0
	str	r3, [r0, #12]
.LBB7744:
.LBB7745:
	.loc 2 31 0
	.syntax divided
@ 31 "/home/sel4/work/work2/kernel/include/arch/arm/armv/armv7-a/armv/machine.h" 1
	isb
@ 0 "" 2
	.arm
	.syntax unified
.L1360:
.LVL1097:
.LBE7745:
.LBE7744:
.LBB7746:
.LBB7747:
	.loc 25 336 0
	movw	r3, #24831
	mov	r2, #0
	movt	r3, 65520
	str	r2, [r3, #-255]
.LVL1098:
.LBE7747:
.LBE7746:
.LBB7748:
.LBB7749:
	.loc 2 31 0
	.syntax divided
@ 31 "/home/sel4/work/work2/kernel/include/arch/arm/armv/armv7-a/armv/machine.h" 1
	isb
@ 0 "" 2
.LVL1099:
	.arm
	.syntax unified
.LBE7749:
.LBE7748:
.LBB7750:
.LBB7751:
	.loc 18 134 0
	movw	r3, #6268
	movt	r3, 197
	.syntax divided
@ 134 "/home/sel4/work/work2/kernel/include/arch/arm/arch/32/mode/machine_pl2.h" 1
	mcr p15, 0, r3, c1, c0, 0
@ 0 "" 2
.LVL1100:
	.arm
	.syntax unified
.LBE7751:
.LBE7750:
.LBB7752:
.LBB7753:
.LBB7754:
.LBB7755:
	.loc 2 21 0
	.syntax divided
@ 21 "/home/sel4/work/work2/kernel/include/arch/arm/armv/armv7-a/armv/machine.h" 1
	dsb
@ 0 "" 2
	.arm
	.syntax unified
.LBE7755:
.LBE7754:
	.loc 18 61 0
	movw	r3, #28731
	movt	r3, 4072
	.syntax divided
@ 61 "/home/sel4/work/work2/kernel/include/arch/arm/arch/32/mode/machine_pl2.h" 1
	mcr p15, 4, r3, c1, c1, 0
@ 0 "" 2
	.arm
	.syntax unified
.LBB7756:
.LBB7757:
	.loc 2 31 0
	.syntax divided
@ 31 "/home/sel4/work/work2/kernel/include/arch/arm/armv/armv7-a/armv/machine.h" 1
	isb
@ 0 "" 2
.LVL1101:
	.arm
	.syntax unified
.LBE7757:
.LBE7756:
.LBE7753:
.LBE7752:
	.loc 25 462 0
	bl	loadAllDisabledBreakpointState
.LVL1102:
.LBB7758:
.LBB7759:
	.loc 2 31 0
	.syntax divided
@ 31 "/home/sel4/work/work2/kernel/include/arch/arm/armv/armv7-a/armv/machine.h" 1
	isb
@ 0 "" 2
	.arm
	.syntax unified
.LBE7759:
.LBE7758:
	.loc 25 471 0
	ldr	r4, [sp]
	.cfi_restore 4
	add	sp, sp, #4
	.cfi_def_cfa_offset 4
	ldr	pc, [sp], #4
	.cfi_restore 15
	.cfi_def_cfa_offset 0
	.cfi_endproc
.LFE628:
	.size	vcpu_disable, .-vcpu_disable
	.align	2
	.global	dissociateVCPUTCB
	.syntax unified
	.arm
	.fpu softvfp
	.type	dissociateVCPUTCB, %function
dissociateVCPUTCB:
.LFB640:
	.loc 25 927 0
	.cfi_startproc
	@ args = 0, pretend = 0, frame = 8
	@ frame_needed = 0, uses_anonymous_args = 0
.LVL1103:
	strd	r4, [sp, #-16]!
	.cfi_def_cfa_offset 16
	.cfi_offset 4, -16
	.cfi_offset 5, -12
	.cfi_offset 6, -8
	.cfi_offset 14, -4
	.loc 25 928 0
	ldr	r4, [r1, #440]
	.loc 25 927 0
	str	r6, [sp, #8]
	str	lr, [sp, #12]
	sub	sp, sp, #8
	.cfi_def_cfa_offset 24
	.loc 25 928 0
	cmp	r4, r0
	bne	.L1366
	.loc 25 928 0 is_stmt 0 discriminator 1
	ldr	r3, [r4]
	cmp	r1, r3
	bne	.L1366
	.loc 25 931 0 is_stmt 1
	movw	r5, #:lower16:armHSCurVCPU
	movt	r5, #:upper16:armHSCurVCPU
	ldr	r3, [r5]
	cmp	r4, r3
	beq	.L1374
.LVL1104:
.L1368:
.LBB7784:
.LBB7785:
.LBB7786:
	.loc 42 38 0
	ldr	r3, [r1, #64]
.LBE7786:
.LBE7785:
.LBE7784:
	.loc 25 934 0
	mov	r2, #0
	str	r2, [r1, #440]
	.loc 25 935 0
	str	r2, [r4]
.LVL1105:
.LBB7791:
.LBB7789:
.LBB7787:
	.loc 42 38 0
	and	r3, r3, #-134217728
.LBE7787:
.LBE7789:
.LBE7791:
.LBB7792:
.LBB7793:
	.loc 21 1281 0
	str	r2, [r1, #156]
.LVL1106:
.LBE7793:
.LBE7792:
.LBB7794:
.LBB7790:
.LBB7788:
	.loc 42 38 0
	orr	r3, r3, #80
.LBE7788:
.LBE7790:
.LBE7794:
.LBB7795:
.LBB7796:
	.loc 10 30 0
	str	r3, [r1, #64]
.LVL1107:
.LBE7796:
.LBE7795:
	.loc 25 942 0
	add	sp, sp, #8
	.cfi_remember_state
	.cfi_def_cfa_offset 16
	@ sp needed
	ldrd	r4, [sp]
	.cfi_restore 5
	.cfi_restore 4
	ldr	r6, [sp, #8]
	.cfi_restore 6
	add	sp, sp, #12
	.cfi_def_cfa_offset 4
	ldr	pc, [sp], #4
	.cfi_restore 15
	.cfi_def_cfa_offset 0
.LVL1108:
.L1374:
	.cfi_restore_state
.LBB7797:
.LBB7798:
	.loc 25 897 0
	movw	r6, #:lower16:armHSVCPUActive
	movt	r6, #:upper16:armHSVCPUActive
	ldr	r3, [r6]
	cmp	r3, #0
	bne	.L1375
.LVL1109:
.L1369:
	.loc 25 901 0
	mov	r3, #0
	str	r3, [r5]
	b	.L1368
.LVL1110:
.L1375:
	.loc 25 898 0
	mov	r0, #0
.LVL1111:
	str	r1, [sp, #4]
	bl	vcpu_disable
.LVL1112:
	.loc 25 899 0
	mov	r3, #0
	ldr	r1, [sp, #4]
	str	r3, [r6]
	b	.L1369
.LVL1113:
.L1366:
.LBE7798:
.LBE7797:
.LBB7799:
.LBB7800:
	.loc 25 929 0
	movw	r1, #:lower16:.LC32
.LVL1114:
	movw	r0, #:lower16:.LC88
.LVL1115:
	ldr	r3, .L1376
	movt	r1, #:upper16:.LC32
	movt	r0, #:upper16:.LC88
	movw	r2, #929
	bl	_fail
.LVL1116:
.L1377:
	.align	2
.L1376:
	.word	.LANCHOR3+2740
.LBE7800:
.LBE7799:
	.cfi_endproc
.LFE640:
	.size	dissociateVCPUTCB, .-dissociateVCPUTCB
	.align	2
	.global	Arch_prepareThreadDelete
	.syntax unified
	.arm
	.fpu softvfp
	.type	Arch_prepareThreadDelete, %function
Arch_prepareThreadDelete:
.LFB507:
	.loc 13 574 0
	.cfi_startproc
	@ args = 0, pretend = 0, frame = 0
	@ frame_needed = 0, uses_anonymous_args = 0
	@ link register save eliminated.
.LVL1117:
	.loc 13 576 0
	ldr	r3, [r0, #440]
	cmp	r3, #0
	beq	.L1378
	.loc 13 577 0
	mov	r1, r0
	mov	r0, r3
.LVL1118:
	b	dissociateVCPUTCB
.LVL1119:
.L1378:
	.loc 13 582 0
	bx	lr
	.cfi_endproc
.LFE507:
	.size	Arch_prepareThreadDelete, .-Arch_prepareThreadDelete
	.align	2
	.global	vcpu_finalise
	.syntax unified
	.arm
	.fpu softvfp
	.type	vcpu_finalise, %function
vcpu_finalise:
.LFB638:
	.loc 25 906 0
	.cfi_startproc
	@ args = 0, pretend = 0, frame = 0
	@ frame_needed = 0, uses_anonymous_args = 0
	@ link register save eliminated.
.LVL1120:
	.loc 25 907 0
	ldr	r1, [r0]
	cmp	r1, #0
	beq	.L1380
	.loc 25 908 0
	b	dissociateVCPUTCB
.LVL1121:
.L1380:
	.loc 25 910 0
	bx	lr
	.cfi_endproc
.LFE638:
	.size	vcpu_finalise, .-vcpu_finalise
	.align	2
	.global	associateVCPUTCB
	.syntax unified
	.arm
	.fpu softvfp
	.type	associateVCPUTCB, %function
associateVCPUTCB:
.LFB639:
	.loc 25 914 0
	.cfi_startproc
	@ args = 0, pretend = 0, frame = 0
	@ frame_needed = 0, uses_anonymous_args = 0
.LVL1122:
	strd	r4, [sp, #-16]!
	.cfi_def_cfa_offset 16
	.cfi_offset 4, -16
	.cfi_offset 5, -12
	.cfi_offset 6, -8
	.cfi_offset 14, -4
	mov	r4, r0
	.loc 25 915 0
	ldr	r0, [r1, #440]
.LVL1123:
	.loc 25 914 0
	mov	r5, r1
	str	r6, [sp, #8]
	str	lr, [sp, #12]
	.loc 25 915 0
	cmp	r0, #0
	beq	.L1383
	.loc 25 916 0
	bl	dissociateVCPUTCB
.LVL1124:
.L1383:
	.loc 25 918 0
	ldr	r1, [r4]
	cmp	r1, #0
	beq	.L1384
	.loc 25 919 0
	mov	r0, r4
	bl	dissociateVCPUTCB
.LVL1125:
.L1384:
	.loc 25 923 0
	ldr	r6, [sp, #8]
	.cfi_restore 6
	.loc 25 921 0
	str	r4, [r5, #440]
	.loc 25 922 0
	str	r5, [r4]
	.loc 25 923 0
	ldrd	r4, [sp]
	.cfi_restore 5
	.cfi_restore 4
.LVL1126:
	add	sp, sp, #12
	.cfi_def_cfa_offset 4
	ldr	pc, [sp], #4
	.cfi_restore 15
	.cfi_def_cfa_offset 0
	.cfi_endproc
.LFE639:
	.size	associateVCPUTCB, .-associateVCPUTCB
	.align	2
	.global	invokeVCPUSetTCB
	.syntax unified
	.arm
	.fpu softvfp
	.type	invokeVCPUSetTCB, %function
invokeVCPUSetTCB:
.LFB649:
	.loc 25 1142 0
	.cfi_startproc
	@ args = 0, pretend = 0, frame = 0
	@ frame_needed = 0, uses_anonymous_args = 0
.LVL1127:
	str	r4, [sp, #-8]!
	.cfi_def_cfa_offset 8
	.cfi_offset 4, -8
	.cfi_offset 14, -4
	str	lr, [sp, #4]
	.loc 25 1143 0
	bl	associateVCPUTCB
.LVL1128:
	.loc 25 1146 0
	ldr	r4, [sp]
	.cfi_restore 4
	add	sp, sp, #4
	.cfi_def_cfa_offset 4
	mov	r0, #0
	ldr	pc, [sp], #4
	.cfi_restore 15
	.cfi_def_cfa_offset 0
	.cfi_endproc
.LFE649:
	.size	invokeVCPUSetTCB, .-invokeVCPUSetTCB
	.align	2
	.global	saveAllBreakpointState
	.syntax unified
	.arm
	.fpu softvfp
	.type	saveAllBreakpointState, %function
saveAllBreakpointState:
.LFB569:
	.loc 21 1249 0
	.cfi_startproc
	@ args = 0, pretend = 0, frame = 0
	@ frame_needed = 0, uses_anonymous_args = 0
.LVL1129:
	strd	r4, [sp, #-24]!
	.cfi_def_cfa_offset 24
	.cfi_offset 4, -24
	.cfi_offset 5, -20
	.cfi_offset 6, -16
	.cfi_offset 7, -12
	.cfi_offset 8, -8
	.cfi_offset 14, -4
	strd	r6, [sp, #8]
	.loc 21 1252 0
	subs	r7, r0, #0
	.loc 21 1249 0
	str	r8, [sp, #16]
	movne	r4, r7
	.loc 21 1252 0
	movne	r6, #1
	.loc 21 1249 0
	str	lr, [sp, #20]
	.loc 21 1252 0
	movne	r5, #0
	beq	.L1408
.LVL1130:
.L1396:
	.loc 21 1255 0 discriminator 3
	uxth	r0, r5
.LVL1131:
.LBB7819:
.LBB7820:
	.loc 21 300 0 discriminator 3
	sub	r3, r0, #1
	cmp	r3, #4
	ldrls	pc, [pc, r3, asl #2]
	b	.L1397
.L1399:
	.word	.L1398
	.word	.L1400
	.word	.L1401
	.word	.L1402
	.word	.L1403
.L1403:
	.loc 21 303 0
	.syntax divided
@ 303 "/home/sel4/work/work2/kernel/src/arch/arm/machine/debug.c" 1
	mrc  p14, 0, r3, c0, c5, 4
@ 0 "" 2
.LVL1132:
	.arm
	.syntax unified
.L1404:
.LBE7820:
.LBE7819:
.LBB7824:
.LBB7825:
	.loc 21 350 0
	str	r3, [r4, #80]
.LVL1133:
.LBE7825:
.LBE7824:
	.loc 21 1256 0
	bl	readBcrCp
.LVL1134:
	.loc 21 1254 0
	cmp	r6, #6
.LBB7827:
.LBB7828:
	.loc 21 343 0
	str	r0, [r4, #76]
.LVL1135:
.LBE7828:
.LBE7827:
	.loc 21 1254 0
	beq	.L1409
.LVL1136:
.L1406:
	add	r5, r5, #1
	add	r6, r6, #1
	add	r4, r4, #8
	b	.L1396
.LVL1137:
.L1402:
.LBB7830:
.LBB7821:
	.loc 21 302 0
	.syntax divided
@ 302 "/home/sel4/work/work2/kernel/src/arch/arm/machine/debug.c" 1
	mrc  p14, 0, r3, c0, c4, 4
@ 0 "" 2
.LVL1138:
	.arm
	.syntax unified
	b	.L1404
.LVL1139:
.L1401:
	.syntax divided
@ 302 "/home/sel4/work/work2/kernel/src/arch/arm/machine/debug.c" 1
	mrc  p14, 0, r3, c0, c3, 4
@ 0 "" 2
.LVL1140:
	.arm
	.syntax unified
	b	.L1404
.LVL1141:
.L1400:
	.loc 21 301 0
	.syntax divided
@ 301 "/home/sel4/work/work2/kernel/src/arch/arm/machine/debug.c" 1
	mrc  p14, 0, r3, c0, c2, 4
@ 0 "" 2
.LVL1142:
	.arm
	.syntax unified
	b	.L1404
.LVL1143:
.L1398:
	.loc 21 300 0
	.syntax divided
@ 300 "/home/sel4/work/work2/kernel/src/arch/arm/machine/debug.c" 1
	mrc  p14, 0, r3, c0, c1, 4
@ 0 "" 2
.LVL1144:
	.arm
	.syntax unified
	b	.L1404
.LVL1145:
.L1409:
.LBE7821:
.LBE7830:
.LBB7831:
.LBB7832:
.LBB7833:
.LBB7834:
	.loc 21 315 0
	.syntax divided
@ 315 "/home/sel4/work/work2/kernel/src/arch/arm/machine/debug.c" 1
	mrc  p14, 0, r3, c0, c0, 6
@ 0 "" 2
.LVL1146:
	.arm
	.syntax unified
.LBE7834:
.LBE7833:
	.loc 21 1261 0
	mov	r0, #0
.LBB7838:
.LBB7839:
	.loc 21 364 0
	str	r3, [r7, #128]
.LVL1147:
.LBE7839:
.LBE7838:
	.loc 21 1261 0
	bl	readWcrCp
.LVL1148:
.LBB7843:
.LBB7844:
	.loc 21 357 0
	str	r0, [r7, #124]
.LVL1149:
.LBE7844:
.LBE7843:
.LBB7848:
.LBB7835:
	.loc 21 302 0
	.syntax divided
@ 302 "/home/sel4/work/work2/kernel/src/arch/arm/machine/debug.c" 1
	mrc  p14, 0, r3, c0, c1, 6
@ 0 "" 2
.LVL1150:
	.arm
	.syntax unified
.LBE7835:
.LBE7848:
	.loc 21 1261 0
	mov	r0, #1
.LBB7849:
.LBB7840:
	.loc 21 364 0
	str	r3, [r7, #136]
.LVL1151:
.LBE7840:
.LBE7849:
	.loc 21 1261 0
	bl	readWcrCp
.LVL1152:
.LBB7850:
.LBB7845:
	.loc 21 357 0
	str	r0, [r7, #132]
.LVL1153:
.LBE7845:
.LBE7850:
.LBB7851:
.LBB7836:
	.loc 21 303 0
	.syntax divided
@ 303 "/home/sel4/work/work2/kernel/src/arch/arm/machine/debug.c" 1
	mrc  p14, 0, r3, c0, c2, 6
@ 0 "" 2
.LVL1154:
	.arm
	.syntax unified
.LBE7836:
.LBE7851:
	.loc 21 1261 0
	mov	r0, #2
.LBB7852:
.LBB7841:
	.loc 21 364 0
	str	r3, [r7, #144]
.LVL1155:
.LBE7841:
.LBE7852:
	.loc 21 1261 0
	bl	readWcrCp
.LVL1156:
.LBB7853:
.LBB7846:
	.loc 21 357 0
	str	r0, [r7, #140]
.LVL1157:
.LBE7846:
.LBE7853:
.LBB7854:
.LBB7837:
	.loc 21 304 0
	.syntax divided
@ 304 "/home/sel4/work/work2/kernel/src/arch/arm/machine/debug.c" 1
	mrc  p14, 0, r3, c0, c3, 6
@ 0 "" 2
.LVL1158:
	.arm
	.syntax unified
.LBE7837:
.LBE7854:
	.loc 21 1261 0
	mov	r0, #3
.LBB7855:
.LBB7842:
	.loc 21 364 0
	str	r3, [r7, #152]
.LVL1159:
.LBE7842:
.LBE7855:
	.loc 21 1261 0
	bl	readWcrCp
.LVL1160:
.LBE7832:
.LBE7831:
	.loc 21 1263 0
	ldrd	r4, [sp]
	.cfi_remember_state
	.cfi_restore 5
	.cfi_restore 4
	ldr	r8, [sp, #16]
	.cfi_restore 8
.LBB7858:
.LBB7857:
.LBB7856:
.LBB7847:
	.loc 21 357 0
	str	r0, [r7, #148]
.LVL1161:
.LBE7847:
.LBE7856:
.LBE7857:
.LBE7858:
	.loc 21 1263 0
	ldrd	r6, [sp, #8]
	.cfi_restore 7
	.cfi_restore 6
.LVL1162:
	add	sp, sp, #20
	.cfi_def_cfa_offset 4
	ldr	pc, [sp], #4
	.cfi_restore 15
	.cfi_def_cfa_offset 0
.LVL1163:
.L1397:
.LBB7859:
.LBB7822:
	.loc 21 312 0
	cmp	r5, #0
	bne	.L1410
	.loc 21 313 0
	.syntax divided
@ 313 "/home/sel4/work/work2/kernel/src/arch/arm/machine/debug.c" 1
	mrc  p14, 0, r3, c0, c0, 4
@ 0 "" 2
.LVL1164:
	.arm
	.syntax unified
.LBE7822:
.LBE7859:
.LBB7860:
.LBB7826:
	.loc 21 350 0
	str	r3, [r4, #80]
.LVL1165:
.LBE7826:
.LBE7860:
	.loc 21 1256 0
	bl	readBcrCp
.LVL1166:
.LBB7861:
.LBB7829:
	.loc 21 343 0
